
stm32-display-spi-dma.elf:     file format elf32-littlearm

Sections:
Idx Name          Size      VMA       LMA       File off  Algn
  0 .isr_vector   00000194  08000000  08000000  00010000  2**0
                  CONTENTS, ALLOC, LOAD, READONLY, DATA
  1 .text         0000167c  08000198  08000198  00010198  2**3
                  CONTENTS, ALLOC, LOAD, READONLY, CODE
  2 .rodata       00002c38  08001814  08001814  00011814  2**2
                  CONTENTS, ALLOC, LOAD, READONLY, DATA
  3 .ARM.extab    00000000  0800444c  0800444c  000200a4  2**0
                  CONTENTS
  4 .ARM          00000000  0800444c  0800444c  000200a4  2**0
                  CONTENTS
  5 .preinit_array 00000000  0800444c  0800444c  000200a4  2**0
                  CONTENTS, ALLOC, LOAD, DATA
  6 .init_array   00000004  0800444c  0800444c  0001444c  2**2
                  CONTENTS, ALLOC, LOAD, DATA
  7 .fini_array   00000004  08004450  08004450  00014450  2**2
                  CONTENTS, ALLOC, LOAD, DATA
  8 .data         000000a4  20000000  08004454  00020000  2**2
                  CONTENTS, ALLOC, LOAD, DATA
  9 .bss          00000024  200000a4  080044f8  000200a4  2**2
                  ALLOC
 10 ._user_heap_stack 00000600  200000c8  080044f8  000200c8  2**0
                  ALLOC
 11 .ARM.attributes 00000030  00000000  00000000  000200a4  2**0
                  CONTENTS, READONLY
 12 .comment      00000043  00000000  00000000  000200d4  2**0
                  CONTENTS, READONLY
 13 .debug_frame  00000094  00000000  00000000  00020118  2**2
                  CONTENTS, READONLY, DEBUGGING, OCTETS

Disassembly of section .text:

08000198 <__do_global_dtors_aux>:
 8000198:	b510      	push	{r4, lr}
 800019a:	4c05      	ldr	r4, [pc, #20]	; (80001b0 <__do_global_dtors_aux+0x18>)
 800019c:	7823      	ldrb	r3, [r4, #0]
 800019e:	b933      	cbnz	r3, 80001ae <__do_global_dtors_aux+0x16>
 80001a0:	4b04      	ldr	r3, [pc, #16]	; (80001b4 <__do_global_dtors_aux+0x1c>)
 80001a2:	b113      	cbz	r3, 80001aa <__do_global_dtors_aux+0x12>
 80001a4:	4804      	ldr	r0, [pc, #16]	; (80001b8 <__do_global_dtors_aux+0x20>)
 80001a6:	f3af 8000 	nop.w
 80001aa:	2301      	movs	r3, #1
 80001ac:	7023      	strb	r3, [r4, #0]
 80001ae:	bd10      	pop	{r4, pc}
 80001b0:	200000a4 	.word	0x200000a4
 80001b4:	00000000 	.word	0x00000000
 80001b8:	080017fc 	.word	0x080017fc

080001bc <frame_dummy>:
 80001bc:	b508      	push	{r3, lr}
 80001be:	4b03      	ldr	r3, [pc, #12]	; (80001cc <frame_dummy+0x10>)
 80001c0:	b11b      	cbz	r3, 80001ca <frame_dummy+0xe>
 80001c2:	4903      	ldr	r1, [pc, #12]	; (80001d0 <frame_dummy+0x14>)
 80001c4:	4803      	ldr	r0, [pc, #12]	; (80001d4 <frame_dummy+0x18>)
 80001c6:	f3af 8000 	nop.w
 80001ca:	bd08      	pop	{r3, pc}
 80001cc:	00000000 	.word	0x00000000
 80001d0:	200000a8 	.word	0x200000a8
 80001d4:	080017fc 	.word	0x080017fc

080001d8 <SystemClock_Config>:
 80001d8:	4a2e      	ldr	r2, [pc, #184]	; (8000294 <SystemClock_Config+0xbc>)
 80001da:	6813      	ldr	r3, [r2, #0]
 80001dc:	f023 0307 	bic.w	r3, r3, #7
 80001e0:	f043 0302 	orr.w	r3, r3, #2
 80001e4:	b510      	push	{r4, lr}
 80001e6:	6013      	str	r3, [r2, #0]
 80001e8:	6813      	ldr	r3, [r2, #0]
 80001ea:	f003 0307 	and.w	r3, r3, #7
 80001ee:	2b02      	cmp	r3, #2
 80001f0:	d1fa      	bne.n	80001e8 <SystemClock_Config+0x10>
 80001f2:	4929      	ldr	r1, [pc, #164]	; (8000298 <SystemClock_Config+0xc0>)
 80001f4:	4b29      	ldr	r3, [pc, #164]	; (800029c <SystemClock_Config+0xc4>)
 80001f6:	680a      	ldr	r2, [r1, #0]
 80001f8:	f422 4240 	bic.w	r2, r2, #49152	; 0xc000
 80001fc:	f442 4200 	orr.w	r2, r2, #32768	; 0x8000
 8000200:	600a      	str	r2, [r1, #0]
 8000202:	681a      	ldr	r2, [r3, #0]
 8000204:	f442 3280 	orr.w	r2, r2, #65536	; 0x10000
 8000208:	601a      	str	r2, [r3, #0]
 800020a:	681a      	ldr	r2, [r3, #0]
 800020c:	0390      	lsls	r0, r2, #14
 800020e:	d5fc      	bpl.n	800020a <SystemClock_Config+0x32>
 8000210:	681a      	ldr	r2, [r3, #0]
 8000212:	4923      	ldr	r1, [pc, #140]	; (80002a0 <SystemClock_Config+0xc8>)
 8000214:	f442 2200 	orr.w	r2, r2, #524288	; 0x80000
 8000218:	601a      	str	r2, [r3, #0]
 800021a:	6858      	ldr	r0, [r3, #4]
 800021c:	4a21      	ldr	r2, [pc, #132]	; (80002a4 <SystemClock_Config+0xcc>)
 800021e:	4001      	ands	r1, r0
 8000220:	430a      	orrs	r2, r1
 8000222:	605a      	str	r2, [r3, #4]
 8000224:	6859      	ldr	r1, [r3, #4]
 8000226:	4a1d      	ldr	r2, [pc, #116]	; (800029c <SystemClock_Config+0xc4>)
 8000228:	f421 3140 	bic.w	r1, r1, #196608	; 0x30000
 800022c:	6059      	str	r1, [r3, #4]
 800022e:	6819      	ldr	r1, [r3, #0]
 8000230:	f041 7180 	orr.w	r1, r1, #16777216	; 0x1000000
 8000234:	6019      	str	r1, [r3, #0]
 8000236:	6813      	ldr	r3, [r2, #0]
 8000238:	0199      	lsls	r1, r3, #6
 800023a:	d5fc      	bpl.n	8000236 <SystemClock_Config+0x5e>
 800023c:	4a16      	ldr	r2, [pc, #88]	; (8000298 <SystemClock_Config+0xc0>)
 800023e:	6853      	ldr	r3, [r2, #4]
 8000240:	045b      	lsls	r3, r3, #17
 8000242:	d5fc      	bpl.n	800023e <SystemClock_Config+0x66>
 8000244:	4c15      	ldr	r4, [pc, #84]	; (800029c <SystemClock_Config+0xc4>)
 8000246:	68a3      	ldr	r3, [r4, #8]
 8000248:	f023 03f0 	bic.w	r3, r3, #240	; 0xf0
 800024c:	60a3      	str	r3, [r4, #8]
 800024e:	68a3      	ldr	r3, [r4, #8]
 8000250:	f423 53e0 	bic.w	r3, r3, #7168	; 0x1c00
 8000254:	f443 5380 	orr.w	r3, r3, #4096	; 0x1000
 8000258:	60a3      	str	r3, [r4, #8]
 800025a:	68a3      	ldr	r3, [r4, #8]
 800025c:	f423 4360 	bic.w	r3, r3, #57344	; 0xe000
 8000260:	60a3      	str	r3, [r4, #8]
 8000262:	68a3      	ldr	r3, [r4, #8]
 8000264:	f023 0303 	bic.w	r3, r3, #3
 8000268:	f043 0302 	orr.w	r3, r3, #2
 800026c:	60a3      	str	r3, [r4, #8]
 800026e:	68a3      	ldr	r3, [r4, #8]
 8000270:	f003 030c 	and.w	r3, r3, #12
 8000274:	2b08      	cmp	r3, #8
 8000276:	d1fa      	bne.n	800026e <SystemClock_Config+0x96>
 8000278:	480b      	ldr	r0, [pc, #44]	; (80002a8 <SystemClock_Config+0xd0>)
 800027a:	f001 fa27 	bl	80016cc <LL_Init1msTick>
 800027e:	480a      	ldr	r0, [pc, #40]	; (80002a8 <SystemClock_Config+0xd0>)
 8000280:	f001 fa46 	bl	8001710 <LL_SetSystemCoreClock>
 8000284:	f8d4 308c 	ldr.w	r3, [r4, #140]	; 0x8c
 8000288:	f023 7380 	bic.w	r3, r3, #16777216	; 0x1000000
 800028c:	f8c4 308c 	str.w	r3, [r4, #140]	; 0x8c
 8000290:	bd10      	pop	{r4, pc}
 8000292:	bf00      	nop
 8000294:	40023c00 	.word	0x40023c00
 8000298:	40007000 	.word	0x40007000
 800029c:	40023800 	.word	0x40023800
 80002a0:	ffbf8000 	.word	0xffbf8000
 80002a4:	00402a19 	.word	0x00402a19
 80002a8:	0501bd00 	.word	0x0501bd00
 80002ac:	00000000 	.word	0x00000000

080002b0 <main>:
 80002b0:	4abf      	ldr	r2, [pc, #764]	; (80005b0 <main+0x300>)
 80002b2:	4bc0      	ldr	r3, [pc, #768]	; (80005b4 <main+0x304>)
 80002b4:	6810      	ldr	r0, [r2, #0]
 80002b6:	49c0      	ldr	r1, [pc, #768]	; (80005b8 <main+0x308>)
 80002b8:	f440 7000 	orr.w	r0, r0, #512	; 0x200
 80002bc:	e92d 4ff0 	stmdb	sp!, {r4, r5, r6, r7, r8, r9, sl, fp, lr}
 80002c0:	6010      	str	r0, [r2, #0]
 80002c2:	6810      	ldr	r0, [r2, #0]
 80002c4:	f440 6080 	orr.w	r0, r0, #1024	; 0x400
 80002c8:	6010      	str	r0, [r2, #0]
 80002ca:	6810      	ldr	r0, [r2, #0]
 80002cc:	f440 7080 	orr.w	r0, r0, #256	; 0x100
 80002d0:	6010      	str	r0, [r2, #0]
 80002d2:	6c58      	ldr	r0, [r3, #68]	; 0x44
 80002d4:	4ab9      	ldr	r2, [pc, #740]	; (80005bc <main+0x30c>)
 80002d6:	f440 4080 	orr.w	r0, r0, #16384	; 0x4000
 80002da:	6458      	str	r0, [r3, #68]	; 0x44
 80002dc:	6c58      	ldr	r0, [r3, #68]	; 0x44
 80002de:	b0cb      	sub	sp, #300	; 0x12c
 80002e0:	f400 4080 	and.w	r0, r0, #16384	; 0x4000
 80002e4:	9012      	str	r0, [sp, #72]	; 0x48
 80002e6:	9812      	ldr	r0, [sp, #72]	; 0x48
 80002e8:	6c18      	ldr	r0, [r3, #64]	; 0x40
 80002ea:	f040 5080 	orr.w	r0, r0, #268435456	; 0x10000000
 80002ee:	6418      	str	r0, [r3, #64]	; 0x40
 80002f0:	6c1b      	ldr	r3, [r3, #64]	; 0x40
 80002f2:	f003 5380 	and.w	r3, r3, #268435456	; 0x10000000
 80002f6:	9311      	str	r3, [sp, #68]	; 0x44
 80002f8:	9b11      	ldr	r3, [sp, #68]	; 0x44
 80002fa:	68cb      	ldr	r3, [r1, #12]
 80002fc:	f64f 04ff 	movw	r4, #63743	; 0xf8ff
 8000300:	4023      	ands	r3, r4
 8000302:	431a      	orrs	r2, r3
 8000304:	60ca      	str	r2, [r1, #12]
 8000306:	68cb      	ldr	r3, [r1, #12]
 8000308:	4cab      	ldr	r4, [pc, #684]	; (80005b8 <main+0x308>)
 800030a:	f3c3 2302 	ubfx	r3, r3, #8, #3
 800030e:	f1c3 0107 	rsb	r1, r3, #7
 8000312:	1d1a      	adds	r2, r3, #4
 8000314:	2904      	cmp	r1, #4
 8000316:	bf28      	it	cs
 8000318:	2104      	movcs	r1, #4
 800031a:	2a06      	cmp	r2, #6
 800031c:	bf88      	it	hi
 800031e:	1eda      	subhi	r2, r3, #3
 8000320:	f04f 33ff 	mov.w	r3, #4294967295
 8000324:	fa03 f301 	lsl.w	r3, r3, r1
 8000328:	bf98      	it	ls
 800032a:	2200      	movls	r2, #0
 800032c:	43db      	mvns	r3, r3
 800032e:	4093      	lsls	r3, r2
 8000330:	011b      	lsls	r3, r3, #4
 8000332:	b2db      	uxtb	r3, r3
 8000334:	f884 3023 	strb.w	r3, [r4, #35]	; 0x23
 8000338:	f7ff ff4e 	bl	80001d8 <SystemClock_Config>
 800033c:	4ba0      	ldr	r3, [pc, #640]	; (80005c0 <main+0x310>)
 800033e:	4aa1      	ldr	r2, [pc, #644]	; (80005c4 <main+0x314>)
 8000340:	681b      	ldr	r3, [r3, #0]
 8000342:	fba2 2303 	umull	r2, r3, r2, r3
 8000346:	099b      	lsrs	r3, r3, #6
 8000348:	3b01      	subs	r3, #1
 800034a:	f1b3 7f80 	cmp.w	r3, #16777216	; 0x1000000
 800034e:	d209      	bcs.n	8000364 <main+0xb4>
 8000350:	f04f 22e0 	mov.w	r2, #3758153728	; 0xe000e000
 8000354:	20f0      	movs	r0, #240	; 0xf0
 8000356:	6153      	str	r3, [r2, #20]
 8000358:	2100      	movs	r1, #0
 800035a:	2307      	movs	r3, #7
 800035c:	f884 0023 	strb.w	r0, [r4, #35]	; 0x23
 8000360:	6191      	str	r1, [r2, #24]
 8000362:	6113      	str	r3, [r2, #16]
 8000364:	2500      	movs	r5, #0
 8000366:	e9cd 552f 	strd	r5, r5, [sp, #188]	; 0xbc
 800036a:	4c92      	ldr	r4, [pc, #584]	; (80005b4 <main+0x304>)
 800036c:	9531      	str	r5, [sp, #196]	; 0xc4
 800036e:	6b23      	ldr	r3, [r4, #48]	; 0x30
 8000370:	4895      	ldr	r0, [pc, #596]	; (80005c8 <main+0x318>)
 8000372:	f8df 8240 	ldr.w	r8, [pc, #576]	; 80005b4 <main+0x304>
 8000376:	f8df a268 	ldr.w	sl, [pc, #616]	; 80005e0 <main+0x330>
 800037a:	4f94      	ldr	r7, [pc, #592]	; (80005cc <main+0x31c>)
 800037c:	f043 0380 	orr.w	r3, r3, #128	; 0x80
 8000380:	6323      	str	r3, [r4, #48]	; 0x30
 8000382:	6b23      	ldr	r3, [r4, #48]	; 0x30
 8000384:	f003 0380 	and.w	r3, r3, #128	; 0x80
 8000388:	9318      	str	r3, [sp, #96]	; 0x60
 800038a:	9b18      	ldr	r3, [sp, #96]	; 0x60
 800038c:	6b23      	ldr	r3, [r4, #48]	; 0x30
 800038e:	f043 0301 	orr.w	r3, r3, #1
 8000392:	6323      	str	r3, [r4, #48]	; 0x30
 8000394:	6b23      	ldr	r3, [r4, #48]	; 0x30
 8000396:	f003 0301 	and.w	r3, r3, #1
 800039a:	9319      	str	r3, [sp, #100]	; 0x64
 800039c:	221c      	movs	r2, #28
 800039e:	9b19      	ldr	r3, [sp, #100]	; 0x64
 80003a0:	6182      	str	r2, [r0, #24]
 80003a2:	2301      	movs	r3, #1
 80003a4:	221c      	movs	r2, #28
 80003a6:	e9cd 232c 	strd	r2, r3, [sp, #176]	; 0xb0
 80003aa:	a92c      	add	r1, sp, #176	; 0xb0
 80003ac:	2302      	movs	r3, #2
 80003ae:	932e      	str	r3, [sp, #184]	; 0xb8
 80003b0:	f000 ff8c 	bl	80012cc <LL_GPIO_Init>
 80003b4:	6b23      	ldr	r3, [r4, #48]	; 0x30
 80003b6:	4a80      	ldr	r2, [pc, #512]	; (80005b8 <main+0x308>)
 80003b8:	f443 0380 	orr.w	r3, r3, #4194304	; 0x400000
 80003bc:	6323      	str	r3, [r4, #48]	; 0x30
 80003be:	6b23      	ldr	r3, [r4, #48]	; 0x30
 80003c0:	f403 0380 	and.w	r3, r3, #4194304	; 0x400000
 80003c4:	9317      	str	r3, [sp, #92]	; 0x5c
 80003c6:	9b17      	ldr	r3, [sp, #92]	; 0x5c
 80003c8:	68d3      	ldr	r3, [r2, #12]
 80003ca:	f3c3 2302 	ubfx	r3, r3, #8, #3
 80003ce:	f1c3 0207 	rsb	r2, r3, #7
 80003d2:	1d19      	adds	r1, r3, #4
 80003d4:	2a04      	cmp	r2, #4
 80003d6:	bf28      	it	cs
 80003d8:	2204      	movcs	r2, #4
 80003da:	2906      	cmp	r1, #6
 80003dc:	bf88      	it	hi
 80003de:	1edd      	subhi	r5, r3, #3
 80003e0:	f04f 33ff 	mov.w	r3, #4294967295
 80003e4:	4093      	lsls	r3, r2
 80003e6:	43db      	mvns	r3, r3
 80003e8:	f003 0303 	and.w	r3, r3, #3
 80003ec:	40ab      	lsls	r3, r5
 80003ee:	4978      	ldr	r1, [pc, #480]	; (80005d0 <main+0x320>)
 80003f0:	011b      	lsls	r3, r3, #4
 80003f2:	b2db      	uxtb	r3, r3
 80003f4:	f04f 6000 	mov.w	r0, #134217728	; 0x8000000
 80003f8:	f881 333b 	strb.w	r3, [r1, #827]	; 0x33b
 80003fc:	2228      	movs	r2, #40	; 0x28
 80003fe:	6048      	str	r0, [r1, #4]
 8000400:	2100      	movs	r1, #0
 8000402:	a82c      	add	r0, sp, #176	; 0xb0
 8000404:	f001 f9ce 	bl	80017a4 <memset>
 8000408:	2300      	movs	r3, #0
 800040a:	9325      	str	r3, [sp, #148]	; 0x94
 800040c:	f8d8 3044 	ldr.w	r3, [r8, #68]	; 0x44
 8000410:	486d      	ldr	r0, [pc, #436]	; (80005c8 <main+0x318>)
 8000412:	f443 5380 	orr.w	r3, r3, #4096	; 0x1000
 8000416:	f8c8 3044 	str.w	r3, [r8, #68]	; 0x44
 800041a:	f8d8 3044 	ldr.w	r3, [r8, #68]	; 0x44
 800041e:	f403 5380 	and.w	r3, r3, #4096	; 0x1000
 8000422:	9315      	str	r3, [sp, #84]	; 0x54
 8000424:	9b15      	ldr	r3, [sp, #84]	; 0x54
 8000426:	f8d8 3030 	ldr.w	r3, [r8, #48]	; 0x30
 800042a:	f043 0301 	orr.w	r3, r3, #1
 800042e:	f8c8 3030 	str.w	r3, [r8, #48]	; 0x30
 8000432:	f8d8 3030 	ldr.w	r3, [r8, #48]	; 0x30
 8000436:	f003 0301 	and.w	r3, r3, #1
 800043a:	9316      	str	r3, [sp, #88]	; 0x58
 800043c:	22a0      	movs	r2, #160	; 0xa0
 800043e:	2302      	movs	r3, #2
 8000440:	e9cd 2322 	strd	r2, r3, [sp, #136]	; 0x88
 8000444:	9b16      	ldr	r3, [sp, #88]	; 0x58
 8000446:	2303      	movs	r3, #3
 8000448:	2201      	movs	r2, #1
 800044a:	9324      	str	r3, [sp, #144]	; 0x90
 800044c:	a922      	add	r1, sp, #136	; 0x88
 800044e:	2305      	movs	r3, #5
 8000450:	e9cd 2326 	strd	r2, r3, [sp, #152]	; 0x98
 8000454:	f000 ff3a 	bl	80012cc <LL_GPIO_Init>
 8000458:	4b5e      	ldr	r3, [pc, #376]	; (80005d4 <main+0x324>)
 800045a:	4a5f      	ldr	r2, [pc, #380]	; (80005d8 <main+0x328>)
 800045c:	6d99      	ldr	r1, [r3, #88]	; 0x58
 800045e:	f021 6160 	bic.w	r1, r1, #234881024	; 0xe000000
 8000462:	f041 61c0 	orr.w	r1, r1, #100663296	; 0x6000000
 8000466:	6599      	str	r1, [r3, #88]	; 0x58
 8000468:	6d99      	ldr	r1, [r3, #88]	; 0x58
 800046a:	f021 01c0 	bic.w	r1, r1, #192	; 0xc0
 800046e:	f041 0140 	orr.w	r1, r1, #64	; 0x40
 8000472:	6599      	str	r1, [r3, #88]	; 0x58
 8000474:	6d99      	ldr	r1, [r3, #88]	; 0x58
 8000476:	f421 3140 	bic.w	r1, r1, #196608	; 0x30000
 800047a:	6599      	str	r1, [r3, #88]	; 0x58
 800047c:	6d99      	ldr	r1, [r3, #88]	; 0x58
 800047e:	f421 7190 	bic.w	r1, r1, #288	; 0x120
 8000482:	6599      	str	r1, [r3, #88]	; 0x58
 8000484:	6d99      	ldr	r1, [r3, #88]	; 0x58
 8000486:	f421 7100 	bic.w	r1, r1, #512	; 0x200
 800048a:	6599      	str	r1, [r3, #88]	; 0x58
 800048c:	6d99      	ldr	r1, [r3, #88]	; 0x58
 800048e:	f441 6180 	orr.w	r1, r1, #1024	; 0x400
 8000492:	6599      	str	r1, [r3, #88]	; 0x58
 8000494:	6d99      	ldr	r1, [r3, #88]	; 0x58
 8000496:	f421 51c0 	bic.w	r1, r1, #6144	; 0x1800
 800049a:	f441 6100 	orr.w	r1, r1, #2048	; 0x800
 800049e:	6599      	str	r1, [r3, #88]	; 0x58
 80004a0:	6d99      	ldr	r1, [r3, #88]	; 0x58
 80004a2:	f421 41c0 	bic.w	r1, r1, #24576	; 0x6000
 80004a6:	f441 5100 	orr.w	r1, r1, #8192	; 0x2000
 80004aa:	6599      	str	r1, [r3, #88]	; 0x58
 80004ac:	6ed9      	ldr	r1, [r3, #108]	; 0x6c
 80004ae:	f021 0104 	bic.w	r1, r1, #4
 80004b2:	66d9      	str	r1, [r3, #108]	; 0x6c
 80004b4:	2300      	movs	r3, #0
 80004b6:	ed9f 7b3c 	vldr	d7, [pc, #240]	; 80005a8 <main+0x2f8>
 80004ba:	e9cd 3332 	strd	r3, r3, [sp, #200]	; 0xc8
 80004be:	932c      	str	r3, [sp, #176]	; 0xb0
 80004c0:	932e      	str	r3, [sp, #184]	; 0xb8
 80004c2:	9330      	str	r3, [sp, #192]	; 0xc0
 80004c4:	2302      	movs	r3, #2
 80004c6:	932f      	str	r3, [sp, #188]	; 0xbc
 80004c8:	f44f 7382 	mov.w	r3, #260	; 0x104
 80004cc:	a92c      	add	r1, sp, #176	; 0xb0
 80004ce:	932d      	str	r3, [sp, #180]	; 0xb4
 80004d0:	4610      	mov	r0, r2
 80004d2:	f44f 7300 	mov.w	r3, #512	; 0x200
 80004d6:	ed8d 7b34 	vstr	d7, [sp, #208]	; 0xd0
 80004da:	9331      	str	r3, [sp, #196]	; 0xc4
 80004dc:	f000 ff9a 	bl	8001414 <LL_SPI_Init>
 80004e0:	4a3d      	ldr	r2, [pc, #244]	; (80005d8 <main+0x328>)
 80004e2:	6851      	ldr	r1, [r2, #4]
 80004e4:	2400      	movs	r4, #0
 80004e6:	f021 0110 	bic.w	r1, r1, #16
 80004ea:	6051      	str	r1, [r2, #4]
 80004ec:	a82c      	add	r0, sp, #176	; 0xb0
 80004ee:	2220      	movs	r2, #32
 80004f0:	4621      	mov	r1, r4
 80004f2:	e9cd 441d 	strd	r4, r4, [sp, #116]	; 0x74
 80004f6:	e9cd 441f 	strd	r4, r4, [sp, #124]	; 0x7c
 80004fa:	9421      	str	r4, [sp, #132]	; 0x84
 80004fc:	f001 f952 	bl	80017a4 <memset>
 8000500:	e9cd 4422 	strd	r4, r4, [sp, #136]	; 0x88
 8000504:	e9cd 4424 	strd	r4, r4, [sp, #144]	; 0x90
 8000508:	e9cd 4426 	strd	r4, r4, [sp, #152]	; 0x98
 800050c:	f8d8 2040 	ldr.w	r2, [r8, #64]	; 0x40
 8000510:	4b32      	ldr	r3, [pc, #200]	; (80005dc <main+0x32c>)
 8000512:	f042 0202 	orr.w	r2, r2, #2
 8000516:	f8c8 2040 	str.w	r2, [r8, #64]	; 0x40
 800051a:	f8d8 2040 	ldr.w	r2, [r8, #64]	; 0x40
 800051e:	f002 0202 	and.w	r2, r2, #2
 8000522:	9213      	str	r2, [sp, #76]	; 0x4c
 8000524:	9a13      	ldr	r2, [sp, #76]	; 0x4c
 8000526:	f240 32e7 	movw	r2, #999	; 0x3e7
 800052a:	a91d      	add	r1, sp, #116	; 0x74
 800052c:	f8ad 2074 	strh.w	r2, [sp, #116]	; 0x74
 8000530:	4618      	mov	r0, r3
 8000532:	22d1      	movs	r2, #209	; 0xd1
 8000534:	921f      	str	r2, [sp, #124]	; 0x7c
 8000536:	f000 ffa5 	bl	8001484 <LL_TIM_Init>
 800053a:	4b28      	ldr	r3, [pc, #160]	; (80005dc <main+0x32c>)
 800053c:	681a      	ldr	r2, [r3, #0]
 800053e:	f04f 4980 	mov.w	r9, #1073741824	; 0x40000000
 8000542:	f022 0280 	bic.w	r2, r2, #128	; 0x80
 8000546:	601a      	str	r2, [r3, #0]
 8000548:	f8d9 2418 	ldr.w	r2, [r9, #1048]	; 0x418
 800054c:	2060      	movs	r0, #96	; 0x60
 800054e:	f042 0208 	orr.w	r2, r2, #8
 8000552:	f8c9 2418 	str.w	r2, [r9, #1048]	; 0x418
 8000556:	902c      	str	r0, [sp, #176]	; 0xb0
 8000558:	2069      	movs	r0, #105	; 0x69
 800055a:	aa2c      	add	r2, sp, #176	; 0xb0
 800055c:	2101      	movs	r1, #1
 800055e:	902f      	str	r0, [sp, #188]	; 0xbc
 8000560:	4618      	mov	r0, r3
 8000562:	e9cd 442d 	strd	r4, r4, [sp, #180]	; 0xb4
 8000566:	9430      	str	r4, [sp, #192]	; 0xc0
 8000568:	f000 ffd8 	bl	800151c <LL_TIM_OC_Init>
 800056c:	f8d9 2418 	ldr.w	r2, [r9, #1048]	; 0x418
 8000570:	4b1a      	ldr	r3, [pc, #104]	; (80005dc <main+0x32c>)
 8000572:	4815      	ldr	r0, [pc, #84]	; (80005c8 <main+0x318>)
 8000574:	f022 0204 	bic.w	r2, r2, #4
 8000578:	f8c9 2418 	str.w	r2, [r9, #1048]	; 0x418
 800057c:	685a      	ldr	r2, [r3, #4]
 800057e:	f022 0270 	bic.w	r2, r2, #112	; 0x70
 8000582:	605a      	str	r2, [r3, #4]
 8000584:	689a      	ldr	r2, [r3, #8]
 8000586:	f022 0280 	bic.w	r2, r2, #128	; 0x80
 800058a:	609a      	str	r2, [r3, #8]
 800058c:	f8d8 3030 	ldr.w	r3, [r8, #48]	; 0x30
 8000590:	f043 0301 	orr.w	r3, r3, #1
 8000594:	f8c8 3030 	str.w	r3, [r8, #48]	; 0x30
 8000598:	f8d8 3030 	ldr.w	r3, [r8, #48]	; 0x30
 800059c:	f003 0301 	and.w	r3, r3, #1
 80005a0:	e020      	b.n	80005e4 <main+0x334>
 80005a2:	bf00      	nop
 80005a4:	f3af 8000 	nop.w
 80005a8:	00000000 	.word	0x00000000
 80005ac:	0000000a 	.word	0x0000000a
 80005b0:	40023c00 	.word	0x40023c00
 80005b4:	40023800 	.word	0x40023800
 80005b8:	e000ed00 	.word	0xe000ed00
 80005bc:	05fa0300 	.word	0x05fa0300
 80005c0:	20000000 	.word	0x20000000
 80005c4:	10624dd3 	.word	0x10624dd3
 80005c8:	40020000 	.word	0x40020000
 80005cc:	200000c0 	.word	0x200000c0
 80005d0:	e000e100 	.word	0xe000e100
 80005d4:	40026400 	.word	0x40026400
 80005d8:	40013000 	.word	0x40013000
 80005dc:	40000400 	.word	0x40000400
 80005e0:	00ffff00 	.word	0x00ffff00
 80005e4:	9314      	str	r3, [sp, #80]	; 0x50
 80005e6:	9b14      	ldr	r3, [sp, #80]	; 0x50
 80005e8:	2202      	movs	r2, #2
 80005ea:	2340      	movs	r3, #64	; 0x40
 80005ec:	9223      	str	r2, [sp, #140]	; 0x8c
 80005ee:	a922      	add	r1, sp, #136	; 0x88
 80005f0:	2200      	movs	r2, #0
 80005f2:	9322      	str	r3, [sp, #136]	; 0x88
 80005f4:	2302      	movs	r3, #2
 80005f6:	e9cd 2326 	strd	r2, r3, [sp, #152]	; 0x98
 80005fa:	e9cd 4424 	strd	r4, r4, [sp, #144]	; 0x90
 80005fe:	f000 fe65 	bl	80012cc <LL_GPIO_Init>
 8000602:	4b4b      	ldr	r3, [pc, #300]	; (8000730 <main+0x480>)
 8000604:	9327      	str	r3, [sp, #156]	; 0x9c
 8000606:	a148      	add	r1, pc, #288	; (adr r1, 8000728 <main+0x478>)
 8000608:	e9d1 0100 	ldrd	r0, r1, [r1]
 800060c:	f04f 0e03 	mov.w	lr, #3
 8000610:	2208      	movs	r2, #8
 8000612:	e9cd e324 	strd	lr, r3, [sp, #144]	; 0x90
 8000616:	9329      	str	r3, [sp, #164]	; 0xa4
 8000618:	f8ad 2098 	strh.w	r2, [sp, #152]	; 0x98
 800061c:	4b45      	ldr	r3, [pc, #276]	; (8000734 <main+0x484>)
 800061e:	2204      	movs	r2, #4
 8000620:	f8ad 20a0 	strh.w	r2, [sp, #160]	; 0xa0
 8000624:	2210      	movs	r2, #16
 8000626:	e9cd 0122 	strd	r0, r1, [sp, #136]	; 0x88
 800062a:	f8ad 20a8 	strh.w	r2, [sp, #168]	; 0xa8
 800062e:	cb0f      	ldmia	r3, {r0, r1, r2, r3}
 8000630:	f10d 0974 	add.w	r9, sp, #116	; 0x74
 8000634:	e889 000f 	stmia.w	r9, {r0, r1, r2, r3}
 8000638:	e899 000f 	ldmia.w	r9, {r0, r1, r2, r3}
 800063c:	f10d 0c2c 	add.w	ip, sp, #44	; 0x2c
 8000640:	e88c 000f 	stmia.w	ip, {r0, r1, r2, r3}
 8000644:	4b3c      	ldr	r3, [pc, #240]	; (8000738 <main+0x488>)
 8000646:	9308      	str	r3, [sp, #32]
 8000648:	4b3c      	ldr	r3, [pc, #240]	; (800073c <main+0x48c>)
 800064a:	9307      	str	r3, [sp, #28]
 800064c:	4b3c      	ldr	r3, [pc, #240]	; (8000740 <main+0x490>)
 800064e:	9306      	str	r3, [sp, #24]
 8000650:	4b3c      	ldr	r3, [pc, #240]	; (8000744 <main+0x494>)
 8000652:	9305      	str	r3, [sp, #20]
 8000654:	2302      	movs	r3, #2
 8000656:	f44f 78a0 	mov.w	r8, #320	; 0x140
 800065a:	930a      	str	r3, [sp, #40]	; 0x28
 800065c:	ab22      	add	r3, sp, #136	; 0x88
 800065e:	9309      	str	r3, [sp, #36]	; 0x24
 8000660:	e9cd 4403 	strd	r4, r4, [sp, #12]
 8000664:	e9cd 8401 	strd	r8, r4, [sp, #4]
 8000668:	f04f 0ef0 	mov.w	lr, #240	; 0xf0
 800066c:	4836      	ldr	r0, [pc, #216]	; (8000748 <main+0x498>)
 800066e:	f8cd e000 	str.w	lr, [sp]
 8000672:	4673      	mov	r3, lr
 8000674:	4672      	mov	r2, lr
 8000676:	a92c      	add	r1, sp, #176	; 0xb0
 8000678:	6800      	ldr	r0, [r0, #0]
 800067a:	f000 fa13 	bl	8000aa4 <LCD_DisplayAdd>
 800067e:	4b32      	ldr	r3, [pc, #200]	; (8000748 <main+0x498>)
 8000680:	4680      	mov	r8, r0
 8000682:	6018      	str	r0, [r3, #0]
 8000684:	f000 faf4 	bl	8000c70 <LCD_Init>
 8000688:	f44f 017f 	mov.w	r1, #16711680	; 0xff0000
 800068c:	4640      	mov	r0, r8
 800068e:	f000 fc2f 	bl	8000ef0 <LCD_Fill>
 8000692:	4b2e      	ldr	r3, [pc, #184]	; (800074c <main+0x49c>)
 8000694:	9300      	str	r3, [sp, #0]
 8000696:	23ff      	movs	r3, #255	; 0xff
 8000698:	9302      	str	r3, [sp, #8]
 800069a:	4640      	mov	r0, r8
 800069c:	4b2c      	ldr	r3, [pc, #176]	; (8000750 <main+0x4a0>)
 800069e:	9403      	str	r4, [sp, #12]
 80006a0:	f8cd a004 	str.w	sl, [sp, #4]
 80006a4:	4622      	mov	r2, r4
 80006a6:	4621      	mov	r1, r4
 80006a8:	f000 fda0 	bl	80011ec <LCD_WriteString>
 80006ac:	f44f 60fa 	mov.w	r0, #2000	; 0x7d0
 80006b0:	4626      	mov	r6, r4
 80006b2:	4625      	mov	r5, r4
 80006b4:	f001 f81a 	bl	80016ec <LL_mDelay>
 80006b8:	f8d7 b000 	ldr.w	fp, [r7]
 80006bc:	683b      	ldr	r3, [r7, #0]
 80006be:	eba3 030b 	sub.w	r3, r3, fp
 80006c2:	f5b3 7f7a 	cmp.w	r3, #1000	; 0x3e8
 80006c6:	f04f 0900 	mov.w	r9, #0
 80006ca:	d214      	bcs.n	80006f6 <main+0x446>
 80006cc:	0231      	lsls	r1, r6, #8
 80006ce:	ea41 4105 	orr.w	r1, r1, r5, lsl #16
 80006d2:	4321      	orrs	r1, r4
 80006d4:	4640      	mov	r0, r8
 80006d6:	f000 fc0b 	bl	8000ef0 <LCD_Fill>
 80006da:	683b      	ldr	r3, [r7, #0]
 80006dc:	eba3 030b 	sub.w	r3, r3, fp
 80006e0:	3501      	adds	r5, #1
 80006e2:	3602      	adds	r6, #2
 80006e4:	3404      	adds	r4, #4
 80006e6:	f5b3 7f7a 	cmp.w	r3, #1000	; 0x3e8
 80006ea:	b2ed      	uxtb	r5, r5
 80006ec:	b2f6      	uxtb	r6, r6
 80006ee:	b2e4      	uxtb	r4, r4
 80006f0:	f109 0901 	add.w	r9, r9, #1
 80006f4:	d3ea      	bcc.n	80006cc <main+0x41c>
 80006f6:	a91a      	add	r1, sp, #104	; 0x68
 80006f8:	220a      	movs	r2, #10
 80006fa:	4648      	mov	r0, r9
 80006fc:	f001 f850 	bl	80017a0 <utoa>
 8000700:	2200      	movs	r2, #0
 8000702:	23ff      	movs	r3, #255	; 0xff
 8000704:	e9cd 3202 	strd	r3, r2, [sp, #8]
 8000708:	4b10      	ldr	r3, [pc, #64]	; (800074c <main+0x49c>)
 800070a:	9300      	str	r3, [sp, #0]
 800070c:	4640      	mov	r0, r8
 800070e:	4611      	mov	r1, r2
 8000710:	f8cd a004 	str.w	sl, [sp, #4]
 8000714:	ab1a      	add	r3, sp, #104	; 0x68
 8000716:	f000 fd69 	bl	80011ec <LCD_WriteString>
 800071a:	f44f 707a 	mov.w	r0, #1000	; 0x3e8
 800071e:	f000 ffe5 	bl	80016ec <LL_mDelay>
 8000722:	e7c9      	b.n	80006b8 <main+0x408>
 8000724:	f3af 8000 	nop.w
 8000728:	40013000 	.word	0x40013000
 800072c:	40026400 	.word	0x40026400
 8000730:	40020000 	.word	0x40020000
 8000734:	08001814 	.word	0x08001814
 8000738:	080012c5 	.word	0x080012c5
 800073c:	080012bd 	.word	0x080012bd
 8000740:	08001275 	.word	0x08001275
 8000744:	08001255 	.word	0x08001255
 8000748:	200000c4 	.word	0x200000c4
 800074c:	20000004 	.word	0x20000004
 8000750:	0800184c 	.word	0x0800184c

08000754 <NMI_Handler>:
 8000754:	e7fe      	b.n	8000754 <NMI_Handler>
 8000756:	bf00      	nop

08000758 <HardFault_Handler>:
 8000758:	e7fe      	b.n	8000758 <HardFault_Handler>
 800075a:	bf00      	nop

0800075c <MemManage_Handler>:
 800075c:	e7fe      	b.n	800075c <MemManage_Handler>
 800075e:	bf00      	nop

08000760 <BusFault_Handler>:
 8000760:	e7fe      	b.n	8000760 <BusFault_Handler>
 8000762:	bf00      	nop

08000764 <UsageFault_Handler>:
 8000764:	e7fe      	b.n	8000764 <UsageFault_Handler>
 8000766:	bf00      	nop

08000768 <SVC_Handler>:
 8000768:	4770      	bx	lr
 800076a:	bf00      	nop

0800076c <DebugMon_Handler>:
 800076c:	4770      	bx	lr
 800076e:	bf00      	nop

08000770 <PendSV_Handler>:
 8000770:	4770      	bx	lr
 8000772:	bf00      	nop

08000774 <SysTick_Handler>:
 8000774:	4a02      	ldr	r2, [pc, #8]	; (8000780 <SysTick_Handler+0xc>)
 8000776:	6813      	ldr	r3, [r2, #0]
 8000778:	3301      	adds	r3, #1
 800077a:	6013      	str	r3, [r2, #0]
 800077c:	4770      	bx	lr
 800077e:	bf00      	nop
 8000780:	200000c0 	.word	0x200000c0

08000784 <DMA2_Stream3_IRQHandler>:
 8000784:	4801      	ldr	r0, [pc, #4]	; (800078c <DMA2_Stream3_IRQHandler+0x8>)
 8000786:	2103      	movs	r1, #3
 8000788:	f000 b836 	b.w	80007f8 <Display_TC_Callback>
 800078c:	40026400 	.word	0x40026400

08000790 <SystemInit>:
 8000790:	4a03      	ldr	r2, [pc, #12]	; (80007a0 <SystemInit+0x10>)
 8000792:	f8d2 3088 	ldr.w	r3, [r2, #136]	; 0x88
 8000796:	f443 0370 	orr.w	r3, r3, #15728640	; 0xf00000
 800079a:	f8c2 3088 	str.w	r3, [r2, #136]	; 0x88
 800079e:	4770      	bx	lr
 80007a0:	e000ed00 	.word	0xe000ed00

080007a4 <Reset_Handler>:
 80007a4:	f8df d034 	ldr.w	sp, [pc, #52]	; 80007dc <LoopFillZerobss+0x12>
 80007a8:	480d      	ldr	r0, [pc, #52]	; (80007e0 <LoopFillZerobss+0x16>)
 80007aa:	490e      	ldr	r1, [pc, #56]	; (80007e4 <LoopFillZerobss+0x1a>)
 80007ac:	4a0e      	ldr	r2, [pc, #56]	; (80007e8 <LoopFillZerobss+0x1e>)
 80007ae:	2300      	movs	r3, #0
 80007b0:	e002      	b.n	80007b8 <LoopCopyDataInit>

080007b2 <CopyDataInit>:
 80007b2:	58d4      	ldr	r4, [r2, r3]
 80007b4:	50c4      	str	r4, [r0, r3]
 80007b6:	3304      	adds	r3, #4

080007b8 <LoopCopyDataInit>:
 80007b8:	18c4      	adds	r4, r0, r3
 80007ba:	428c      	cmp	r4, r1
 80007bc:	d3f9      	bcc.n	80007b2 <CopyDataInit>
 80007be:	4a0b      	ldr	r2, [pc, #44]	; (80007ec <LoopFillZerobss+0x22>)
 80007c0:	4c0b      	ldr	r4, [pc, #44]	; (80007f0 <LoopFillZerobss+0x26>)
 80007c2:	2300      	movs	r3, #0
 80007c4:	e001      	b.n	80007ca <LoopFillZerobss>

080007c6 <FillZerobss>:
 80007c6:	6013      	str	r3, [r2, #0]
 80007c8:	3204      	adds	r2, #4

080007ca <LoopFillZerobss>:
 80007ca:	42a2      	cmp	r2, r4
 80007cc:	d3fb      	bcc.n	80007c6 <FillZerobss>
 80007ce:	f7ff ffdf 	bl	8000790 <SystemInit>
 80007d2:	f000 ffef 	bl	80017b4 <__libc_init_array>
 80007d6:	f7ff fd6b 	bl	80002b0 <main>
 80007da:	4770      	bx	lr
 80007dc:	20010000 	.word	0x20010000
 80007e0:	20000000 	.word	0x20000000
 80007e4:	200000a4 	.word	0x200000a4
 80007e8:	08004454 	.word	0x08004454
 80007ec:	200000a4 	.word	0x200000a4
 80007f0:	200000c8 	.word	0x200000c8

080007f4 <ADC_IRQHandler>:
 80007f4:	e7fe      	b.n	80007f4 <ADC_IRQHandler>
	...

080007f8 <Display_TC_Callback>:
 80007f8:	b530      	push	{r4, r5, lr}
 80007fa:	4b35      	ldr	r3, [pc, #212]	; (80008d0 <Display_TC_Callback+0xd8>)
 80007fc:	4684      	mov	ip, r0
 80007fe:	468e      	mov	lr, r1
 8000800:	e893 0003 	ldmia.w	r3, {r0, r1}
 8000804:	b083      	sub	sp, #12
 8000806:	ab02      	add	r3, sp, #8
 8000808:	e903 0003 	stmdb	r3, {r0, r1}
 800080c:	f10e 0208 	add.w	r2, lr, #8
 8000810:	446a      	add	r2, sp
 8000812:	f1be 0f03 	cmp.w	lr, #3
 8000816:	f812 2c08 	ldrb.w	r2, [r2, #-8]
 800081a:	f04f 033f 	mov.w	r3, #63	; 0x3f
 800081e:	fa03 f302 	lsl.w	r3, r3, r2
 8000822:	bf88      	it	hi
 8000824:	f10c 010c 	addhi.w	r1, ip, #12
 8000828:	4a2a      	ldr	r2, [pc, #168]	; (80008d4 <Display_TC_Callback+0xdc>)
 800082a:	bf98      	it	ls
 800082c:	f10c 0108 	addls.w	r1, ip, #8
 8000830:	600b      	str	r3, [r1, #0]
 8000832:	6813      	ldr	r3, [r2, #0]
 8000834:	b12b      	cbz	r3, 8000842 <Display_TC_Callback+0x4a>
 8000836:	6a9a      	ldr	r2, [r3, #40]	; 0x28
 8000838:	4594      	cmp	ip, r2
 800083a:	d004      	beq.n	8000846 <Display_TC_Callback+0x4e>
 800083c:	6f1b      	ldr	r3, [r3, #112]	; 0x70
 800083e:	2b00      	cmp	r3, #0
 8000840:	d1f9      	bne.n	8000836 <Display_TC_Callback+0x3e>
 8000842:	b003      	add	sp, #12
 8000844:	bd30      	pop	{r4, r5, pc}
 8000846:	6ada      	ldr	r2, [r3, #44]	; 0x2c
 8000848:	4596      	cmp	lr, r2
 800084a:	d1f7      	bne.n	800083c <Display_TC_Callback+0x44>
 800084c:	6c1c      	ldr	r4, [r3, #64]	; 0x40
 800084e:	b124      	cbz	r4, 800085a <Display_TC_Callback+0x62>
 8000850:	6962      	ldr	r2, [r4, #20]
 8000852:	f8b3 1044 	ldrh.w	r1, [r3, #68]	; 0x44
 8000856:	4211      	tst	r1, r2
 8000858:	d1f0      	bne.n	800083c <Display_TC_Callback+0x44>
 800085a:	4a1f      	ldr	r2, [pc, #124]	; (80008d8 <Display_TC_Callback+0xe0>)
 800085c:	f812 000e 	ldrb.w	r0, [r2, lr]
 8000860:	f85c 2000 	ldr.w	r2, [ip, r0]
 8000864:	f022 0201 	bic.w	r2, r2, #1
 8000868:	f84c 2000 	str.w	r2, [ip, r0]
 800086c:	eb0c 0100 	add.w	r1, ip, r0
 8000870:	680a      	ldr	r2, [r1, #0]
 8000872:	f012 0201 	ands.w	r2, r2, #1
 8000876:	d1fb      	bne.n	8000870 <Display_TC_Callback+0x78>
 8000878:	6e1d      	ldr	r5, [r3, #96]	; 0x60
 800087a:	b9a5      	cbnz	r5, 80008a6 <Display_TC_Callback+0xae>
 800087c:	6a59      	ldr	r1, [r3, #36]	; 0x24
 800087e:	684a      	ldr	r2, [r1, #4]
 8000880:	f022 0202 	bic.w	r2, r2, #2
 8000884:	604a      	str	r2, [r1, #4]
 8000886:	688a      	ldr	r2, [r1, #8]
 8000888:	0612      	lsls	r2, r2, #24
 800088a:	d4fc      	bmi.n	8000886 <Display_TC_Callback+0x8e>
 800088c:	f893 2065 	ldrb.w	r2, [r3, #101]	; 0x65
 8000890:	b91a      	cbnz	r2, 800089a <Display_TC_Callback+0xa2>
 8000892:	b114      	cbz	r4, 800089a <Display_TC_Callback+0xa2>
 8000894:	f8b3 3044 	ldrh.w	r3, [r3, #68]	; 0x44
 8000898:	61a3      	str	r3, [r4, #24]
 800089a:	680b      	ldr	r3, [r1, #0]
 800089c:	f023 0340 	bic.w	r3, r3, #64	; 0x40
 80008a0:	600b      	str	r3, [r1, #0]
 80008a2:	b003      	add	sp, #12
 80008a4:	bd30      	pop	{r4, r5, pc}
 80008a6:	f5b5 3f80 	cmp.w	r5, #65536	; 0x10000
 80008aa:	d209      	bcs.n	80008c0 <Display_TC_Callback+0xc8>
 80008ac:	604d      	str	r5, [r1, #4]
 80008ae:	f85c 1000 	ldr.w	r1, [ip, r0]
 80008b2:	661a      	str	r2, [r3, #96]	; 0x60
 80008b4:	f041 0101 	orr.w	r1, r1, #1
 80008b8:	f84c 1000 	str.w	r1, [ip, r0]
 80008bc:	b003      	add	sp, #12
 80008be:	bd30      	pop	{r4, r5, pc}
 80008c0:	f5a5 427f 	sub.w	r2, r5, #65280	; 0xff00
 80008c4:	f64f 74ff 	movw	r4, #65535	; 0xffff
 80008c8:	3aff      	subs	r2, #255	; 0xff
 80008ca:	604c      	str	r4, [r1, #4]
 80008cc:	e7ef      	b.n	80008ae <Display_TC_Callback+0xb6>
 80008ce:	bf00      	nop
 80008d0:	08001824 	.word	0x08001824
 80008d4:	200000c4 	.word	0x200000c4
 80008d8:	0800185c 	.word	0x0800185c

080008dc <LCD_String_Interpretator>:
 80008dc:	b5f8      	push	{r3, r4, r5, r6, r7, lr}
 80008de:	6a45      	ldr	r5, [r0, #36]	; 0x24
 80008e0:	4604      	mov	r4, r0
 80008e2:	682b      	ldr	r3, [r5, #0]
 80008e4:	065f      	lsls	r7, r3, #25
 80008e6:	d4fc      	bmi.n	80008e2 <LCD_String_Interpretator+0x6>
 80008e8:	f894 3065 	ldrb.w	r3, [r4, #101]	; 0x65
 80008ec:	b92b      	cbnz	r3, 80008fa <LCD_String_Interpretator+0x1e>
 80008ee:	6c23      	ldr	r3, [r4, #64]	; 0x40
 80008f0:	b11b      	cbz	r3, 80008fa <LCD_String_Interpretator+0x1e>
 80008f2:	f8b4 2044 	ldrh.w	r2, [r4, #68]	; 0x44
 80008f6:	0412      	lsls	r2, r2, #16
 80008f8:	619a      	str	r2, [r3, #24]
 80008fa:	682b      	ldr	r3, [r5, #0]
 80008fc:	f423 432c 	bic.w	r3, r3, #44032	; 0xac00
 8000900:	602b      	str	r3, [r5, #0]
 8000902:	682b      	ldr	r3, [r5, #0]
 8000904:	f043 0340 	orr.w	r3, r3, #64	; 0x40
 8000908:	602b      	str	r3, [r5, #0]
 800090a:	780b      	ldrb	r3, [r1, #0]
 800090c:	2b01      	cmp	r3, #1
 800090e:	d039      	beq.n	8000984 <LCD_String_Interpretator+0xa8>
 8000910:	2b02      	cmp	r3, #2
 8000912:	d051      	beq.n	80009b8 <LCD_String_Interpretator+0xdc>
 8000914:	b163      	cbz	r3, 8000930 <LCD_String_Interpretator+0x54>
 8000916:	f894 3065 	ldrb.w	r3, [r4, #101]	; 0x65
 800091a:	b923      	cbnz	r3, 8000926 <LCD_String_Interpretator+0x4a>
 800091c:	6c23      	ldr	r3, [r4, #64]	; 0x40
 800091e:	b113      	cbz	r3, 8000926 <LCD_String_Interpretator+0x4a>
 8000920:	f8b4 2044 	ldrh.w	r2, [r4, #68]	; 0x44
 8000924:	619a      	str	r2, [r3, #24]
 8000926:	682b      	ldr	r3, [r5, #0]
 8000928:	f023 0340 	bic.w	r3, r3, #64	; 0x40
 800092c:	602b      	str	r3, [r5, #0]
 800092e:	bdf8      	pop	{r3, r4, r5, r6, r7, pc}
 8000930:	8fa2      	ldrh	r2, [r4, #60]	; 0x3c
 8000932:	6a63      	ldr	r3, [r4, #36]	; 0x24
 8000934:	6ba6      	ldr	r6, [r4, #56]	; 0x38
 8000936:	7848      	ldrb	r0, [r1, #1]
 8000938:	0412      	lsls	r2, r2, #16
 800093a:	61b2      	str	r2, [r6, #24]
 800093c:	7318      	strb	r0, [r3, #12]
 800093e:	689a      	ldr	r2, [r3, #8]
 8000940:	0796      	lsls	r6, r2, #30
 8000942:	d5fc      	bpl.n	800093e <LCD_String_Interpretator+0x62>
 8000944:	689a      	ldr	r2, [r3, #8]
 8000946:	0610      	lsls	r0, r2, #24
 8000948:	d4fc      	bmi.n	8000944 <LCD_String_Interpretator+0x68>
 800094a:	788f      	ldrb	r7, [r1, #2]
 800094c:	f101 0e03 	add.w	lr, r1, #3
 8000950:	2f00      	cmp	r7, #0
 8000952:	d037      	beq.n	80009c4 <LCD_String_Interpretator+0xe8>
 8000954:	f107 0c03 	add.w	ip, r7, #3
 8000958:	448c      	add	ip, r1
 800095a:	4670      	mov	r0, lr
 800095c:	6a63      	ldr	r3, [r4, #36]	; 0x24
 800095e:	6ba1      	ldr	r1, [r4, #56]	; 0x38
 8000960:	f810 2b01 	ldrb.w	r2, [r0], #1
 8000964:	8fa6      	ldrh	r6, [r4, #60]	; 0x3c
 8000966:	618e      	str	r6, [r1, #24]
 8000968:	731a      	strb	r2, [r3, #12]
 800096a:	689a      	ldr	r2, [r3, #8]
 800096c:	0792      	lsls	r2, r2, #30
 800096e:	d5fc      	bpl.n	800096a <LCD_String_Interpretator+0x8e>
 8000970:	689a      	ldr	r2, [r3, #8]
 8000972:	0616      	lsls	r6, r2, #24
 8000974:	d4fc      	bmi.n	8000970 <LCD_String_Interpretator+0x94>
 8000976:	4584      	cmp	ip, r0
 8000978:	d1f0      	bne.n	800095c <LCD_String_Interpretator+0x80>
 800097a:	eb0e 0107 	add.w	r1, lr, r7
 800097e:	780b      	ldrb	r3, [r1, #0]
 8000980:	2b01      	cmp	r3, #1
 8000982:	d1c5      	bne.n	8000910 <LCD_String_Interpretator+0x34>
 8000984:	784f      	ldrb	r7, [r1, #1]
 8000986:	f101 0e02 	add.w	lr, r1, #2
 800098a:	b1df      	cbz	r7, 80009c4 <LCD_String_Interpretator+0xe8>
 800098c:	f107 0c02 	add.w	ip, r7, #2
 8000990:	448c      	add	ip, r1
 8000992:	4670      	mov	r0, lr
 8000994:	6a63      	ldr	r3, [r4, #36]	; 0x24
 8000996:	6ba1      	ldr	r1, [r4, #56]	; 0x38
 8000998:	f810 2b01 	ldrb.w	r2, [r0], #1
 800099c:	8fa6      	ldrh	r6, [r4, #60]	; 0x3c
 800099e:	618e      	str	r6, [r1, #24]
 80009a0:	731a      	strb	r2, [r3, #12]
 80009a2:	689a      	ldr	r2, [r3, #8]
 80009a4:	0791      	lsls	r1, r2, #30
 80009a6:	d5fc      	bpl.n	80009a2 <LCD_String_Interpretator+0xc6>
 80009a8:	689a      	ldr	r2, [r3, #8]
 80009aa:	0612      	lsls	r2, r2, #24
 80009ac:	d4fc      	bmi.n	80009a8 <LCD_String_Interpretator+0xcc>
 80009ae:	4584      	cmp	ip, r0
 80009b0:	d1f0      	bne.n	8000994 <LCD_String_Interpretator+0xb8>
 80009b2:	eb0e 0107 	add.w	r1, lr, r7
 80009b6:	e7e2      	b.n	800097e <LCD_String_Interpretator+0xa2>
 80009b8:	7848      	ldrb	r0, [r1, #1]
 80009ba:	1c8e      	adds	r6, r1, #2
 80009bc:	f000 fe96 	bl	80016ec <LL_mDelay>
 80009c0:	4631      	mov	r1, r6
 80009c2:	e7a2      	b.n	800090a <LCD_String_Interpretator+0x2e>
 80009c4:	4671      	mov	r1, lr
 80009c6:	e7a0      	b.n	800090a <LCD_String_Interpretator+0x2e>

080009c8 <LCD_DrawPixel.part.0>:
 80009c8:	b570      	push	{r4, r5, r6, lr}
 80009ca:	4604      	mov	r4, r0
 80009cc:	8940      	ldrh	r0, [r0, #10]
 80009ce:	89a5      	ldrh	r5, [r4, #12]
 80009d0:	69a6      	ldr	r6, [r4, #24]
 80009d2:	4401      	add	r1, r0
 80009d4:	442a      	add	r2, r5
 80009d6:	b288      	uxth	r0, r1
 80009d8:	b292      	uxth	r2, r2
 80009da:	461d      	mov	r5, r3
 80009dc:	4611      	mov	r1, r2
 80009de:	4613      	mov	r3, r2
 80009e0:	4602      	mov	r2, r0
 80009e2:	47b0      	blx	r6
 80009e4:	4601      	mov	r1, r0
 80009e6:	4620      	mov	r0, r4
 80009e8:	f7ff ff78 	bl	80008dc <LCD_String_Interpretator>
 80009ec:	4a2c      	ldr	r2, [pc, #176]	; (8000aa0 <LCD_DrawPixel.part.0+0xd8>)
 80009ee:	f894 0048 	ldrb.w	r0, [r4, #72]	; 0x48
 80009f2:	f3c5 01c4 	ubfx	r1, r5, #3, #5
 80009f6:	ea02 2215 	and.w	r2, r2, r5, lsr #8
 80009fa:	096b      	lsrs	r3, r5, #5
 80009fc:	4311      	orrs	r1, r2
 80009fe:	f403 63fc 	and.w	r3, r3, #2016	; 0x7e0
 8000a02:	4319      	orrs	r1, r3
 8000a04:	2801      	cmp	r0, #1
 8000a06:	b289      	uxth	r1, r1
 8000a08:	d101      	bne.n	8000a0e <LCD_DrawPixel.part.0+0x46>
 8000a0a:	ba49      	rev16	r1, r1
 8000a0c:	b289      	uxth	r1, r1
 8000a0e:	6a63      	ldr	r3, [r4, #36]	; 0x24
 8000a10:	681a      	ldr	r2, [r3, #0]
 8000a12:	0656      	lsls	r6, r2, #25
 8000a14:	d4fc      	bmi.n	8000a10 <LCD_DrawPixel.part.0+0x48>
 8000a16:	f894 2065 	ldrb.w	r2, [r4, #101]	; 0x65
 8000a1a:	b92a      	cbnz	r2, 8000a28 <LCD_DrawPixel.part.0+0x60>
 8000a1c:	6c25      	ldr	r5, [r4, #64]	; 0x40
 8000a1e:	b11d      	cbz	r5, 8000a28 <LCD_DrawPixel.part.0+0x60>
 8000a20:	f8b4 2044 	ldrh.w	r2, [r4, #68]	; 0x44
 8000a24:	0412      	lsls	r2, r2, #16
 8000a26:	61aa      	str	r2, [r5, #24]
 8000a28:	f894 2066 	ldrb.w	r2, [r4, #102]	; 0x66
 8000a2c:	b912      	cbnz	r2, 8000a34 <LCD_DrawPixel.part.0+0x6c>
 8000a2e:	6ba2      	ldr	r2, [r4, #56]	; 0x38
 8000a30:	8fa5      	ldrh	r5, [r4, #60]	; 0x3c
 8000a32:	6195      	str	r5, [r2, #24]
 8000a34:	681a      	ldr	r2, [r3, #0]
 8000a36:	2802      	cmp	r0, #2
 8000a38:	f422 422c 	bic.w	r2, r2, #44032	; 0xac00
 8000a3c:	601a      	str	r2, [r3, #0]
 8000a3e:	d01e      	beq.n	8000a7e <LCD_DrawPixel.part.0+0xb6>
 8000a40:	6818      	ldr	r0, [r3, #0]
 8000a42:	b2ca      	uxtb	r2, r1
 8000a44:	f040 0040 	orr.w	r0, r0, #64	; 0x40
 8000a48:	6018      	str	r0, [r3, #0]
 8000a4a:	731a      	strb	r2, [r3, #12]
 8000a4c:	689a      	ldr	r2, [r3, #8]
 8000a4e:	0795      	lsls	r5, r2, #30
 8000a50:	d5fc      	bpl.n	8000a4c <LCD_DrawPixel.part.0+0x84>
 8000a52:	f3c1 2107 	ubfx	r1, r1, #8, #8
 8000a56:	7319      	strb	r1, [r3, #12]
 8000a58:	689a      	ldr	r2, [r3, #8]
 8000a5a:	0790      	lsls	r0, r2, #30
 8000a5c:	d5fc      	bpl.n	8000a58 <LCD_DrawPixel.part.0+0x90>
 8000a5e:	689a      	ldr	r2, [r3, #8]
 8000a60:	0612      	lsls	r2, r2, #24
 8000a62:	d4fc      	bmi.n	8000a5e <LCD_DrawPixel.part.0+0x96>
 8000a64:	f894 2065 	ldrb.w	r2, [r4, #101]	; 0x65
 8000a68:	b922      	cbnz	r2, 8000a74 <LCD_DrawPixel.part.0+0xac>
 8000a6a:	6c22      	ldr	r2, [r4, #64]	; 0x40
 8000a6c:	b112      	cbz	r2, 8000a74 <LCD_DrawPixel.part.0+0xac>
 8000a6e:	f8b4 1044 	ldrh.w	r1, [r4, #68]	; 0x44
 8000a72:	6191      	str	r1, [r2, #24]
 8000a74:	681a      	ldr	r2, [r3, #0]
 8000a76:	f022 0240 	bic.w	r2, r2, #64	; 0x40
 8000a7a:	601a      	str	r2, [r3, #0]
 8000a7c:	bd70      	pop	{r4, r5, r6, pc}
 8000a7e:	681a      	ldr	r2, [r3, #0]
 8000a80:	f442 6200 	orr.w	r2, r2, #2048	; 0x800
 8000a84:	601a      	str	r2, [r3, #0]
 8000a86:	681a      	ldr	r2, [r3, #0]
 8000a88:	f042 0240 	orr.w	r2, r2, #64	; 0x40
 8000a8c:	601a      	str	r2, [r3, #0]
 8000a8e:	8199      	strh	r1, [r3, #12]
 8000a90:	689a      	ldr	r2, [r3, #8]
 8000a92:	0791      	lsls	r1, r2, #30
 8000a94:	d5fc      	bpl.n	8000a90 <LCD_DrawPixel.part.0+0xc8>
 8000a96:	689a      	ldr	r2, [r3, #8]
 8000a98:	0612      	lsls	r2, r2, #24
 8000a9a:	d4e0      	bmi.n	8000a5e <LCD_DrawPixel.part.0+0x96>
 8000a9c:	e7e2      	b.n	8000a64 <LCD_DrawPixel.part.0+0x9c>
 8000a9e:	bf00      	nop
 8000aa0:	fffff800 	.word	0xfffff800

08000aa4 <LCD_DisplayAdd>:
 8000aa4:	e92d 4ff0 	stmdb	sp!, {r4, r5, r6, r7, r8, r9, sl, fp, lr}
 8000aa8:	b083      	sub	sp, #12
 8000aaa:	e9cd 2300 	strd	r2, r3, [sp]
 8000aae:	f8bd 9030 	ldrh.w	r9, [sp, #48]	; 0x30
 8000ab2:	f8bd 8034 	ldrh.w	r8, [sp, #52]	; 0x34
 8000ab6:	f9bd 6038 	ldrsh.w	r6, [sp, #56]	; 0x38
 8000aba:	f9bd 703c 	ldrsh.w	r7, [sp, #60]	; 0x3c
 8000abe:	f89d a040 	ldrb.w	sl, [sp, #64]	; 0x40
 8000ac2:	f89d b058 	ldrb.w	fp, [sp, #88]	; 0x58
 8000ac6:	460c      	mov	r4, r1
 8000ac8:	2900      	cmp	r1, #0
 8000aca:	f000 80ad 	beq.w	8000c28 <LCD_DisplayAdd+0x184>
 8000ace:	2274      	movs	r2, #116	; 0x74
 8000ad0:	2100      	movs	r1, #0
 8000ad2:	4605      	mov	r5, r0
 8000ad4:	4620      	mov	r0, r4
 8000ad6:	f000 fe65 	bl	80017a4 <memset>
 8000ada:	f8dd c054 	ldr.w	ip, [sp, #84]	; 0x54
 8000ade:	f884 b048 	strb.w	fp, [r4, #72]	; 0x48
 8000ae2:	e8bc 000f 	ldmia.w	ip!, {r0, r1, r2, r3}
 8000ae6:	f104 0e24 	add.w	lr, r4, #36	; 0x24
 8000aea:	e8ae 000f 	stmia.w	lr!, {r0, r1, r2, r3}
 8000aee:	e8bc 000f 	ldmia.w	ip!, {r0, r1, r2, r3}
 8000af2:	e8ae 000f 	stmia.w	lr!, {r0, r1, r2, r3}
 8000af6:	f8dc 3000 	ldr.w	r3, [ip]
 8000afa:	f8ce 3000 	str.w	r3, [lr]
 8000afe:	6aa2      	ldr	r2, [r4, #40]	; 0x28
 8000b00:	2a00      	cmp	r2, #0
 8000b02:	d035      	beq.n	8000b70 <LCD_DisplayAdd+0xcc>
 8000b04:	6ae3      	ldr	r3, [r4, #44]	; 0x2c
 8000b06:	4959      	ldr	r1, [pc, #356]	; (8000c6c <LCD_DisplayAdd+0x1c8>)
 8000b08:	5cc9      	ldrb	r1, [r1, r3]
 8000b0a:	5853      	ldr	r3, [r2, r1]
 8000b0c:	f023 0301 	bic.w	r3, r3, #1
 8000b10:	5053      	str	r3, [r2, r1]
 8000b12:	1850      	adds	r0, r2, r1
 8000b14:	6803      	ldr	r3, [r0, #0]
 8000b16:	07db      	lsls	r3, r3, #31
 8000b18:	d4fc      	bmi.n	8000b14 <LCD_DisplayAdd+0x70>
 8000b1a:	f1bb 0f01 	cmp.w	fp, #1
 8000b1e:	d00b      	beq.n	8000b38 <LCD_DisplayAdd+0x94>
 8000b20:	f1bb 0f02 	cmp.w	fp, #2
 8000b24:	d10e      	bne.n	8000b44 <LCD_DisplayAdd+0xa0>
 8000b26:	5853      	ldr	r3, [r2, r1]
 8000b28:	f423 43f0 	bic.w	r3, r3, #30720	; 0x7800
 8000b2c:	5053      	str	r3, [r2, r1]
 8000b2e:	5853      	ldr	r3, [r2, r1]
 8000b30:	f443 5320 	orr.w	r3, r3, #10240	; 0x2800
 8000b34:	5053      	str	r3, [r2, r1]
 8000b36:	e005      	b.n	8000b44 <LCD_DisplayAdd+0xa0>
 8000b38:	5853      	ldr	r3, [r2, r1]
 8000b3a:	f423 43f0 	bic.w	r3, r3, #30720	; 0x7800
 8000b3e:	5053      	str	r3, [r2, r1]
 8000b40:	5853      	ldr	r3, [r2, r1]
 8000b42:	5053      	str	r3, [r2, r1]
 8000b44:	5853      	ldr	r3, [r2, r1]
 8000b46:	f423 2380 	bic.w	r3, r3, #262144	; 0x40000
 8000b4a:	f023 030e 	bic.w	r3, r3, #14
 8000b4e:	5053      	str	r3, [r2, r1]
 8000b50:	6943      	ldr	r3, [r0, #20]
 8000b52:	f023 0380 	bic.w	r3, r3, #128	; 0x80
 8000b56:	6143      	str	r3, [r0, #20]
 8000b58:	5853      	ldr	r3, [r2, r1]
 8000b5a:	f043 0310 	orr.w	r3, r3, #16
 8000b5e:	5053      	str	r3, [r2, r1]
 8000b60:	5853      	ldr	r3, [r2, r1]
 8000b62:	f423 7300 	bic.w	r3, r3, #512	; 0x200
 8000b66:	5053      	str	r3, [r2, r1]
 8000b68:	5853      	ldr	r3, [r2, r1]
 8000b6a:	f443 6380 	orr.w	r3, r3, #1024	; 0x400
 8000b6e:	5053      	str	r3, [r2, r1]
 8000b70:	9a01      	ldr	r2, [sp, #4]
 8000b72:	9900      	ldr	r1, [sp, #0]
 8000b74:	428a      	cmp	r2, r1
 8000b76:	4613      	mov	r3, r2
 8000b78:	bf38      	it	cc
 8000b7a:	460b      	movcc	r3, r1
 8000b7c:	428a      	cmp	r2, r1
 8000b7e:	bf28      	it	cs
 8000b80:	460a      	movcs	r2, r1
 8000b82:	f1ba 0f00 	cmp.w	sl, #0
 8000b86:	d13a      	bne.n	8000bfe <LCD_DisplayAdd+0x15a>
 8000b88:	4591      	cmp	r9, r2
 8000b8a:	8166      	strh	r6, [r4, #10]
 8000b8c:	81a7      	strh	r7, [r4, #12]
 8000b8e:	80a2      	strh	r2, [r4, #4]
 8000b90:	80e3      	strh	r3, [r4, #6]
 8000b92:	f8a4 9000 	strh.w	r9, [r4]
 8000b96:	f8a4 8002 	strh.w	r8, [r4, #2]
 8000b9a:	d349      	bcc.n	8000c30 <LCD_DisplayAdd+0x18c>
 8000b9c:	4543      	cmp	r3, r8
 8000b9e:	d847      	bhi.n	8000c30 <LCD_DisplayAdd+0x18c>
 8000ba0:	9b11      	ldr	r3, [sp, #68]	; 0x44
 8000ba2:	2b00      	cmp	r3, #0
 8000ba4:	d044      	beq.n	8000c30 <LCD_DisplayAdd+0x18c>
 8000ba6:	9b12      	ldr	r3, [sp, #72]	; 0x48
 8000ba8:	2b00      	cmp	r3, #0
 8000baa:	d041      	beq.n	8000c30 <LCD_DisplayAdd+0x18c>
 8000bac:	9a11      	ldr	r2, [sp, #68]	; 0x44
 8000bae:	6162      	str	r2, [r4, #20]
 8000bb0:	9a12      	ldr	r2, [sp, #72]	; 0x48
 8000bb2:	61a2      	str	r2, [r4, #24]
 8000bb4:	9a13      	ldr	r2, [sp, #76]	; 0x4c
 8000bb6:	61e2      	str	r2, [r4, #28]
 8000bb8:	ab17      	add	r3, sp, #92	; 0x5c
 8000bba:	9a14      	ldr	r2, [sp, #80]	; 0x50
 8000bbc:	6222      	str	r2, [r4, #32]
 8000bbe:	cb0f      	ldmia	r3, {r0, r1, r2, r3}
 8000bc0:	2700      	movs	r7, #0
 8000bc2:	f104 064c 	add.w	r6, r4, #76	; 0x4c
 8000bc6:	f884 a008 	strb.w	sl, [r4, #8]
 8000bca:	e886 000f 	stmia.w	r6, {r0, r1, r2, r3}
 8000bce:	e9c4 771b 	strd	r7, r7, [r4, #108]	; 0x6c
 8000bd2:	f884 7064 	strb.w	r7, [r4, #100]	; 0x64
 8000bd6:	65e7      	str	r7, [r4, #92]	; 0x5c
 8000bd8:	b335      	cbz	r5, 8000c28 <LCD_DisplayAdd+0x184>
 8000bda:	6f2b      	ldr	r3, [r5, #112]	; 0x70
 8000bdc:	b14b      	cbz	r3, 8000bf2 <LCD_DisplayAdd+0x14e>
 8000bde:	2201      	movs	r2, #1
 8000be0:	461d      	mov	r5, r3
 8000be2:	6f1b      	ldr	r3, [r3, #112]	; 0x70
 8000be4:	1c51      	adds	r1, r2, #1
 8000be6:	4610      	mov	r0, r2
 8000be8:	b2ca      	uxtb	r2, r1
 8000bea:	2b00      	cmp	r3, #0
 8000bec:	d1f8      	bne.n	8000be0 <LCD_DisplayAdd+0x13c>
 8000bee:	f884 0064 	strb.w	r0, [r4, #100]	; 0x64
 8000bf2:	4620      	mov	r0, r4
 8000bf4:	66e5      	str	r5, [r4, #108]	; 0x6c
 8000bf6:	672c      	str	r4, [r5, #112]	; 0x70
 8000bf8:	b003      	add	sp, #12
 8000bfa:	e8bd 8ff0 	ldmia.w	sp!, {r4, r5, r6, r7, r8, r9, sl, fp, pc}
 8000bfe:	f1ba 0f02 	cmp.w	sl, #2
 8000c02:	d01e      	beq.n	8000c42 <LCD_DisplayAdd+0x19e>
 8000c04:	f1ba 0f01 	cmp.w	sl, #1
 8000c08:	d024      	beq.n	8000c54 <LCD_DisplayAdd+0x1b0>
 8000c0a:	f1ba 0f03 	cmp.w	sl, #3
 8000c0e:	d10f      	bne.n	8000c30 <LCD_DisplayAdd+0x18c>
 8000c10:	eba8 0107 	sub.w	r1, r8, r7
 8000c14:	1ac9      	subs	r1, r1, r3
 8000c16:	4694      	mov	ip, r2
 8000c18:	4648      	mov	r0, r9
 8000c1a:	4637      	mov	r7, r6
 8000c1c:	461a      	mov	r2, r3
 8000c1e:	46c1      	mov	r9, r8
 8000c20:	b20e      	sxth	r6, r1
 8000c22:	4663      	mov	r3, ip
 8000c24:	4680      	mov	r8, r0
 8000c26:	e7af      	b.n	8000b88 <LCD_DisplayAdd+0xe4>
 8000c28:	4620      	mov	r0, r4
 8000c2a:	b003      	add	sp, #12
 8000c2c:	e8bd 8ff0 	ldmia.w	sp!, {r4, r5, r6, r7, r8, r9, sl, fp, pc}
 8000c30:	2274      	movs	r2, #116	; 0x74
 8000c32:	2100      	movs	r1, #0
 8000c34:	4620      	mov	r0, r4
 8000c36:	f000 fdb5 	bl	80017a4 <memset>
 8000c3a:	2000      	movs	r0, #0
 8000c3c:	b003      	add	sp, #12
 8000c3e:	e8bd 8ff0 	ldmia.w	sp!, {r4, r5, r6, r7, r8, r9, sl, fp, pc}
 8000c42:	eba9 0606 	sub.w	r6, r9, r6
 8000c46:	eba8 0707 	sub.w	r7, r8, r7
 8000c4a:	1ab6      	subs	r6, r6, r2
 8000c4c:	1aff      	subs	r7, r7, r3
 8000c4e:	b236      	sxth	r6, r6
 8000c50:	b23f      	sxth	r7, r7
 8000c52:	e799      	b.n	8000b88 <LCD_DisplayAdd+0xe4>
 8000c54:	eba9 0106 	sub.w	r1, r9, r6
 8000c58:	1a89      	subs	r1, r1, r2
 8000c5a:	4694      	mov	ip, r2
 8000c5c:	4648      	mov	r0, r9
 8000c5e:	463e      	mov	r6, r7
 8000c60:	461a      	mov	r2, r3
 8000c62:	46c1      	mov	r9, r8
 8000c64:	b20f      	sxth	r7, r1
 8000c66:	4663      	mov	r3, ip
 8000c68:	4680      	mov	r8, r0
 8000c6a:	e78d      	b.n	8000b88 <LCD_DisplayAdd+0xe4>
 8000c6c:	0800185c 	.word	0x0800185c

08000c70 <LCD_Init>:
 8000c70:	6b03      	ldr	r3, [r0, #48]	; 0x30
 8000c72:	b510      	push	{r4, lr}
 8000c74:	4604      	mov	r4, r0
 8000c76:	b15b      	cbz	r3, 8000c90 <LCD_Init+0x20>
 8000c78:	8e82      	ldrh	r2, [r0, #52]	; 0x34
 8000c7a:	0412      	lsls	r2, r2, #16
 8000c7c:	619a      	str	r2, [r3, #24]
 8000c7e:	2019      	movs	r0, #25
 8000c80:	f000 fd34 	bl	80016ec <LL_mDelay>
 8000c84:	6b23      	ldr	r3, [r4, #48]	; 0x30
 8000c86:	8ea2      	ldrh	r2, [r4, #52]	; 0x34
 8000c88:	619a      	str	r2, [r3, #24]
 8000c8a:	2019      	movs	r0, #25
 8000c8c:	f000 fd2e 	bl	80016ec <LL_mDelay>
 8000c90:	6963      	ldr	r3, [r4, #20]
 8000c92:	7a20      	ldrb	r0, [r4, #8]
 8000c94:	4798      	blx	r3
 8000c96:	4601      	mov	r1, r0
 8000c98:	4620      	mov	r0, r4
 8000c9a:	f7ff fe1f 	bl	80008dc <LCD_String_Interpretator>
 8000c9e:	f894 105a 	ldrb.w	r1, [r4, #90]	; 0x5a
 8000ca2:	6ce2      	ldr	r2, [r4, #76]	; 0x4c
 8000ca4:	2964      	cmp	r1, #100	; 0x64
 8000ca6:	460b      	mov	r3, r1
 8000ca8:	bf28      	it	cs
 8000caa:	2364      	movcs	r3, #100	; 0x64
 8000cac:	f884 305a 	strb.w	r3, [r4, #90]	; 0x5a
 8000cb0:	b30a      	cbz	r2, 8000cf6 <LCD_Init+0x86>
 8000cb2:	6ad1      	ldr	r1, [r2, #44]	; 0x2c
 8000cb4:	4817      	ldr	r0, [pc, #92]	; (8000d14 <LCD_Init+0xa4>)
 8000cb6:	fb01 f303 	mul.w	r3, r1, r3
 8000cba:	6d21      	ldr	r1, [r4, #80]	; 0x50
 8000cbc:	fba0 0303 	umull	r0, r3, r0, r3
 8000cc0:	f5b1 7f80 	cmp.w	r1, #256	; 0x100
 8000cc4:	ea4f 1353 	mov.w	r3, r3, lsr #5
 8000cc8:	d022      	beq.n	8000d10 <LCD_Init+0xa0>
 8000cca:	d80f      	bhi.n	8000cec <LCD_Init+0x7c>
 8000ccc:	2901      	cmp	r1, #1
 8000cce:	d01a      	beq.n	8000d06 <LCD_Init+0x96>
 8000cd0:	2910      	cmp	r1, #16
 8000cd2:	bf08      	it	eq
 8000cd4:	6393      	streq	r3, [r2, #56]	; 0x38
 8000cd6:	6813      	ldr	r3, [r2, #0]
 8000cd8:	07db      	lsls	r3, r3, #31
 8000cda:	d406      	bmi.n	8000cea <LCD_Init+0x7a>
 8000cdc:	6a13      	ldr	r3, [r2, #32]
 8000cde:	4319      	orrs	r1, r3
 8000ce0:	6211      	str	r1, [r2, #32]
 8000ce2:	6813      	ldr	r3, [r2, #0]
 8000ce4:	f043 0301 	orr.w	r3, r3, #1
 8000ce8:	6013      	str	r3, [r2, #0]
 8000cea:	bd10      	pop	{r4, pc}
 8000cec:	f5b1 5f80 	cmp.w	r1, #4096	; 0x1000
 8000cf0:	d1f1      	bne.n	8000cd6 <LCD_Init+0x66>
 8000cf2:	6413      	str	r3, [r2, #64]	; 0x40
 8000cf4:	e7ef      	b.n	8000cd6 <LCD_Init+0x66>
 8000cf6:	6d63      	ldr	r3, [r4, #84]	; 0x54
 8000cf8:	2b00      	cmp	r3, #0
 8000cfa:	d0f6      	beq.n	8000cea <LCD_Init+0x7a>
 8000cfc:	f8b4 2058 	ldrh.w	r2, [r4, #88]	; 0x58
 8000d00:	b119      	cbz	r1, 8000d0a <LCD_Init+0x9a>
 8000d02:	619a      	str	r2, [r3, #24]
 8000d04:	bd10      	pop	{r4, pc}
 8000d06:	6353      	str	r3, [r2, #52]	; 0x34
 8000d08:	e7e5      	b.n	8000cd6 <LCD_Init+0x66>
 8000d0a:	0412      	lsls	r2, r2, #16
 8000d0c:	619a      	str	r2, [r3, #24]
 8000d0e:	e7f9      	b.n	8000d04 <LCD_Init+0x94>
 8000d10:	63d3      	str	r3, [r2, #60]	; 0x3c
 8000d12:	e7e0      	b.n	8000cd6 <LCD_Init+0x66>
 8000d14:	51eb851f 	.word	0x51eb851f

08000d18 <LCD_FillWindow>:
 8000d18:	b5f0      	push	{r4, r5, r6, r7, lr}
 8000d1a:	461c      	mov	r4, r3
 8000d1c:	b083      	sub	sp, #12
 8000d1e:	42a1      	cmp	r1, r4
 8000d20:	f8bd 3020 	ldrh.w	r3, [sp, #32]
 8000d24:	9f09      	ldr	r7, [sp, #36]	; 0x24
 8000d26:	468c      	mov	ip, r1
 8000d28:	4605      	mov	r5, r0
 8000d2a:	d901      	bls.n	8000d30 <LCD_FillWindow+0x18>
 8000d2c:	46a4      	mov	ip, r4
 8000d2e:	460c      	mov	r4, r1
 8000d30:	429a      	cmp	r2, r3
 8000d32:	d902      	bls.n	8000d3a <LCD_FillWindow+0x22>
 8000d34:	4611      	mov	r1, r2
 8000d36:	461a      	mov	r2, r3
 8000d38:	460b      	mov	r3, r1
 8000d3a:	88a9      	ldrh	r1, [r5, #4]
 8000d3c:	4561      	cmp	r1, ip
 8000d3e:	f240 8088 	bls.w	8000e52 <LCD_FillWindow+0x13a>
 8000d42:	88e8      	ldrh	r0, [r5, #6]
 8000d44:	4290      	cmp	r0, r2
 8000d46:	f240 8084 	bls.w	8000e52 <LCD_FillWindow+0x13a>
 8000d4a:	42a1      	cmp	r1, r4
 8000d4c:	bf9c      	itt	ls
 8000d4e:	f101 31ff 	addls.w	r1, r1, #4294967295
 8000d52:	b28c      	uxthls	r4, r1
 8000d54:	4298      	cmp	r0, r3
 8000d56:	bf9c      	itt	ls
 8000d58:	f100 30ff 	addls.w	r0, r0, #4294967295
 8000d5c:	b283      	uxthls	r3, r0
 8000d5e:	89a9      	ldrh	r1, [r5, #12]
 8000d60:	8968      	ldrh	r0, [r5, #10]
 8000d62:	1a9e      	subs	r6, r3, r2
 8000d64:	3601      	adds	r6, #1
 8000d66:	440b      	add	r3, r1
 8000d68:	4411      	add	r1, r2
 8000d6a:	1822      	adds	r2, r4, r0
 8000d6c:	eba4 040c 	sub.w	r4, r4, ip
 8000d70:	4460      	add	r0, ip
 8000d72:	b29b      	uxth	r3, r3
 8000d74:	b289      	uxth	r1, r1
 8000d76:	b292      	uxth	r2, r2
 8000d78:	fb04 6606 	mla	r6, r4, r6, r6
 8000d7c:	b280      	uxth	r0, r0
 8000d7e:	69ac      	ldr	r4, [r5, #24]
 8000d80:	47a0      	blx	r4
 8000d82:	4601      	mov	r1, r0
 8000d84:	4628      	mov	r0, r5
 8000d86:	f7ff fda9 	bl	80008dc <LCD_String_Interpretator>
 8000d8a:	f895 1065 	ldrb.w	r1, [r5, #101]	; 0x65
 8000d8e:	b929      	cbnz	r1, 8000d9c <LCD_FillWindow+0x84>
 8000d90:	6c2a      	ldr	r2, [r5, #64]	; 0x40
 8000d92:	b11a      	cbz	r2, 8000d9c <LCD_FillWindow+0x84>
 8000d94:	f8b5 3044 	ldrh.w	r3, [r5, #68]	; 0x44
 8000d98:	041b      	lsls	r3, r3, #16
 8000d9a:	6193      	str	r3, [r2, #24]
 8000d9c:	f895 3066 	ldrb.w	r3, [r5, #102]	; 0x66
 8000da0:	b913      	cbnz	r3, 8000da8 <LCD_FillWindow+0x90>
 8000da2:	6bab      	ldr	r3, [r5, #56]	; 0x38
 8000da4:	8faa      	ldrh	r2, [r5, #60]	; 0x3c
 8000da6:	619a      	str	r2, [r3, #24]
 8000da8:	4b4e      	ldr	r3, [pc, #312]	; (8000ee4 <LCD_FillWindow+0x1cc>)
 8000daa:	f3c7 00c4 	ubfx	r0, r7, #3, #5
 8000dae:	ea03 2317 	and.w	r3, r3, r7, lsr #8
 8000db2:	4318      	orrs	r0, r3
 8000db4:	097f      	lsrs	r7, r7, #5
 8000db6:	f895 3048 	ldrb.w	r3, [r5, #72]	; 0x48
 8000dba:	f407 67fc 	and.w	r7, r7, #2016	; 0x7e0
 8000dbe:	4338      	orrs	r0, r7
 8000dc0:	2b01      	cmp	r3, #1
 8000dc2:	b280      	uxth	r0, r0
 8000dc4:	d06b      	beq.n	8000e9e <LCD_FillWindow+0x186>
 8000dc6:	6a6a      	ldr	r2, [r5, #36]	; 0x24
 8000dc8:	f8a5 0068 	strh.w	r0, [r5, #104]	; 0x68
 8000dcc:	6814      	ldr	r4, [r2, #0]
 8000dce:	f424 442c 	bic.w	r4, r4, #44032	; 0xac00
 8000dd2:	6014      	str	r4, [r2, #0]
 8000dd4:	2b02      	cmp	r3, #2
 8000dd6:	6813      	ldr	r3, [r2, #0]
 8000dd8:	d13d      	bne.n	8000e56 <LCD_FillWindow+0x13e>
 8000dda:	f443 6300 	orr.w	r3, r3, #2048	; 0x800
 8000dde:	6013      	str	r3, [r2, #0]
 8000de0:	6813      	ldr	r3, [r2, #0]
 8000de2:	f043 0340 	orr.w	r3, r3, #64	; 0x40
 8000de6:	6013      	str	r3, [r2, #0]
 8000de8:	6aab      	ldr	r3, [r5, #40]	; 0x28
 8000dea:	2b00      	cmp	r3, #0
 8000dec:	d070      	beq.n	8000ed0 <LCD_FillWindow+0x1b8>
 8000dee:	6aec      	ldr	r4, [r5, #44]	; 0x2c
 8000df0:	483d      	ldr	r0, [pc, #244]	; (8000ee8 <LCD_FillWindow+0x1d0>)
 8000df2:	493e      	ldr	r1, [pc, #248]	; (8000eec <LCD_FillWindow+0x1d4>)
 8000df4:	5d07      	ldrb	r7, [r0, r4]
 8000df6:	c903      	ldmia	r1, {r0, r1}
 8000df8:	f10d 0c08 	add.w	ip, sp, #8
 8000dfc:	e90c 0003 	stmdb	ip, {r0, r1}
 8000e00:	f104 0108 	add.w	r1, r4, #8
 8000e04:	2c03      	cmp	r4, #3
 8000e06:	eb0d 0401 	add.w	r4, sp, r1
 8000e0a:	441f      	add	r7, r3
 8000e0c:	f814 0c08 	ldrb.w	r0, [r4, #-8]
 8000e10:	bf8c      	ite	hi
 8000e12:	330c      	addhi	r3, #12
 8000e14:	3308      	addls	r3, #8
 8000e16:	213f      	movs	r1, #63	; 0x3f
 8000e18:	4081      	lsls	r1, r0
 8000e1a:	6019      	str	r1, [r3, #0]
 8000e1c:	6853      	ldr	r3, [r2, #4]
 8000e1e:	f043 0302 	orr.w	r3, r3, #2
 8000e22:	6053      	str	r3, [r2, #4]
 8000e24:	f105 0368 	add.w	r3, r5, #104	; 0x68
 8000e28:	320c      	adds	r2, #12
 8000e2a:	60ba      	str	r2, [r7, #8]
 8000e2c:	60fb      	str	r3, [r7, #12]
 8000e2e:	683b      	ldr	r3, [r7, #0]
 8000e30:	f423 7300 	bic.w	r3, r3, #512	; 0x200
 8000e34:	603b      	str	r3, [r7, #0]
 8000e36:	683b      	ldr	r3, [r7, #0]
 8000e38:	f5b6 3f80 	cmp.w	r6, #65536	; 0x10000
 8000e3c:	f423 6380 	bic.w	r3, r3, #1024	; 0x400
 8000e40:	603b      	str	r3, [r7, #0]
 8000e42:	d23e      	bcs.n	8000ec2 <LCD_FillWindow+0x1aa>
 8000e44:	607e      	str	r6, [r7, #4]
 8000e46:	2600      	movs	r6, #0
 8000e48:	683b      	ldr	r3, [r7, #0]
 8000e4a:	662e      	str	r6, [r5, #96]	; 0x60
 8000e4c:	f043 0301 	orr.w	r3, r3, #1
 8000e50:	603b      	str	r3, [r7, #0]
 8000e52:	b003      	add	sp, #12
 8000e54:	bdf0      	pop	{r4, r5, r6, r7, pc}
 8000e56:	f043 0340 	orr.w	r3, r3, #64	; 0x40
 8000e5a:	6013      	str	r3, [r2, #0]
 8000e5c:	6aab      	ldr	r3, [r5, #40]	; 0x28
 8000e5e:	2b00      	cmp	r3, #0
 8000e60:	d1c5      	bne.n	8000dee <LCD_FillWindow+0xd6>
 8000e62:	b2c3      	uxtb	r3, r0
 8000e64:	0a00      	lsrs	r0, r0, #8
 8000e66:	b15e      	cbz	r6, 8000e80 <LCD_FillWindow+0x168>
 8000e68:	7313      	strb	r3, [r2, #12]
 8000e6a:	6894      	ldr	r4, [r2, #8]
 8000e6c:	07a4      	lsls	r4, r4, #30
 8000e6e:	d5fc      	bpl.n	8000e6a <LCD_FillWindow+0x152>
 8000e70:	7310      	strb	r0, [r2, #12]
 8000e72:	6894      	ldr	r4, [r2, #8]
 8000e74:	07a1      	lsls	r1, r4, #30
 8000e76:	d5fc      	bpl.n	8000e72 <LCD_FillWindow+0x15a>
 8000e78:	3e02      	subs	r6, #2
 8000e7a:	d1f5      	bne.n	8000e68 <LCD_FillWindow+0x150>
 8000e7c:	f895 1065 	ldrb.w	r1, [r5, #101]	; 0x65
 8000e80:	6893      	ldr	r3, [r2, #8]
 8000e82:	061b      	lsls	r3, r3, #24
 8000e84:	d4fc      	bmi.n	8000e80 <LCD_FillWindow+0x168>
 8000e86:	b921      	cbnz	r1, 8000e92 <LCD_FillWindow+0x17a>
 8000e88:	6c2b      	ldr	r3, [r5, #64]	; 0x40
 8000e8a:	b113      	cbz	r3, 8000e92 <LCD_FillWindow+0x17a>
 8000e8c:	f8b5 1044 	ldrh.w	r1, [r5, #68]	; 0x44
 8000e90:	6199      	str	r1, [r3, #24]
 8000e92:	6813      	ldr	r3, [r2, #0]
 8000e94:	f023 0340 	bic.w	r3, r3, #64	; 0x40
 8000e98:	6013      	str	r3, [r2, #0]
 8000e9a:	b003      	add	sp, #12
 8000e9c:	bdf0      	pop	{r4, r5, r6, r7, pc}
 8000e9e:	e9d5 2309 	ldrd	r2, r3, [r5, #36]	; 0x24
 8000ea2:	6814      	ldr	r4, [r2, #0]
 8000ea4:	ba40      	rev16	r0, r0
 8000ea6:	f424 442c 	bic.w	r4, r4, #44032	; 0xac00
 8000eaa:	f8a5 0068 	strh.w	r0, [r5, #104]	; 0x68
 8000eae:	6014      	str	r4, [r2, #0]
 8000eb0:	6814      	ldr	r4, [r2, #0]
 8000eb2:	f044 0440 	orr.w	r4, r4, #64	; 0x40
 8000eb6:	b280      	uxth	r0, r0
 8000eb8:	6014      	str	r4, [r2, #0]
 8000eba:	2b00      	cmp	r3, #0
 8000ebc:	d0d1      	beq.n	8000e62 <LCD_FillWindow+0x14a>
 8000ebe:	0076      	lsls	r6, r6, #1
 8000ec0:	e795      	b.n	8000dee <LCD_FillWindow+0xd6>
 8000ec2:	f64f 73ff 	movw	r3, #65535	; 0xffff
 8000ec6:	f5a6 467f 	sub.w	r6, r6, #65280	; 0xff00
 8000eca:	607b      	str	r3, [r7, #4]
 8000ecc:	3eff      	subs	r6, #255	; 0xff
 8000ece:	e7bb      	b.n	8000e48 <LCD_FillWindow+0x130>
 8000ed0:	1e74      	subs	r4, r6, #1
 8000ed2:	2e00      	cmp	r6, #0
 8000ed4:	d0d4      	beq.n	8000e80 <LCD_FillWindow+0x168>
 8000ed6:	8190      	strh	r0, [r2, #12]
 8000ed8:	6893      	ldr	r3, [r2, #8]
 8000eda:	079e      	lsls	r6, r3, #30
 8000edc:	d5fc      	bpl.n	8000ed8 <LCD_FillWindow+0x1c0>
 8000ede:	3c01      	subs	r4, #1
 8000ee0:	d2f9      	bcs.n	8000ed6 <LCD_FillWindow+0x1be>
 8000ee2:	e7cd      	b.n	8000e80 <LCD_FillWindow+0x168>
 8000ee4:	fffff800 	.word	0xfffff800
 8000ee8:	0800185c 	.word	0x0800185c
 8000eec:	08001824 	.word	0x08001824

08000ef0 <LCD_Fill>:
 8000ef0:	b510      	push	{r4, lr}
 8000ef2:	88c4      	ldrh	r4, [r0, #6]
 8000ef4:	8883      	ldrh	r3, [r0, #4]
 8000ef6:	3c01      	subs	r4, #1
 8000ef8:	b082      	sub	sp, #8
 8000efa:	2200      	movs	r2, #0
 8000efc:	b2a4      	uxth	r4, r4
 8000efe:	3b01      	subs	r3, #1
 8000f00:	e9cd 4100 	strd	r4, r1, [sp]
 8000f04:	b29b      	uxth	r3, r3
 8000f06:	4611      	mov	r1, r2
 8000f08:	f7ff ff06 	bl	8000d18 <LCD_FillWindow>
 8000f0c:	b002      	add	sp, #8
 8000f0e:	bd10      	pop	{r4, pc}

08000f10 <LCD_WriteChar>:
 8000f10:	e92d 4ff0 	stmdb	sp!, {r4, r5, r6, r7, r8, r9, sl, fp, lr}
 8000f14:	b087      	sub	sp, #28
 8000f16:	4606      	mov	r6, r0
 8000f18:	4693      	mov	fp, r2
 8000f1a:	4618      	mov	r0, r3
 8000f1c:	4ab2      	ldr	r2, [pc, #712]	; (80011e8 <LCD_WriteChar+0x2d8>)
 8000f1e:	9b11      	ldr	r3, [sp, #68]	; 0x44
 8000f20:	f896 5048 	ldrb.w	r5, [r6, #72]	; 0x48
 8000f24:	f8dd 9040 	ldr.w	r9, [sp, #64]	; 0x40
 8000f28:	9103      	str	r1, [sp, #12]
 8000f2a:	ea02 2213 	and.w	r2, r2, r3, lsr #8
 8000f2e:	f3c3 08c4 	ubfx	r8, r3, #3, #5
 8000f32:	ea48 0802 	orr.w	r8, r8, r2
 8000f36:	095a      	lsrs	r2, r3, #5
 8000f38:	f402 62fc 	and.w	r2, r2, #2016	; 0x7e0
 8000f3c:	ea48 0802 	orr.w	r8, r8, r2
 8000f40:	2d01      	cmp	r5, #1
 8000f42:	9a12      	ldr	r2, [sp, #72]	; 0x48
 8000f44:	f89d 104c 	ldrb.w	r1, [sp, #76]	; 0x4c
 8000f48:	f8d9 4004 	ldr.w	r4, [r9, #4]
 8000f4c:	fa1f f888 	uxth.w	r8, r8
 8000f50:	d103      	bne.n	8000f5a <LCD_WriteChar+0x4a>
 8000f52:	fa98 f898 	rev16.w	r8, r8
 8000f56:	fa1f f888 	uxth.w	r8, r8
 8000f5a:	4fa3      	ldr	r7, [pc, #652]	; (80011e8 <LCD_WriteChar+0x2d8>)
 8000f5c:	ea07 2c12 	and.w	ip, r7, r2, lsr #8
 8000f60:	f3c2 07c4 	ubfx	r7, r2, #3, #5
 8000f64:	0952      	lsrs	r2, r2, #5
 8000f66:	ea47 070c 	orr.w	r7, r7, ip
 8000f6a:	f402 62fc 	and.w	r2, r2, #2016	; 0x7e0
 8000f6e:	4317      	orrs	r7, r2
 8000f70:	2d01      	cmp	r5, #1
 8000f72:	b2bf      	uxth	r7, r7
 8000f74:	d101      	bne.n	8000f7a <LCD_WriteChar+0x6a>
 8000f76:	ba7f      	rev16	r7, r7
 8000f78:	b2bf      	uxth	r7, r7
 8000f7a:	f899 2008 	ldrb.w	r2, [r9, #8]
 8000f7e:	4282      	cmp	r2, r0
 8000f80:	d804      	bhi.n	8000f8c <LCD_WriteChar+0x7c>
 8000f82:	f899 5009 	ldrb.w	r5, [r9, #9]
 8000f86:	4285      	cmp	r5, r0
 8000f88:	f080 8104 	bcs.w	8001194 <LCD_WriteChar+0x284>
 8000f8c:	2200      	movs	r2, #0
 8000f8e:	f899 0000 	ldrb.w	r0, [r9]
 8000f92:	1e45      	subs	r5, r0, #1
 8000f94:	10ed      	asrs	r5, r5, #3
 8000f96:	9502      	str	r5, [sp, #8]
 8000f98:	3501      	adds	r5, #1
 8000f9a:	2d04      	cmp	r5, #4
 8000f9c:	9501      	str	r5, [sp, #4]
 8000f9e:	f300 80a9 	bgt.w	80010f4 <LCD_WriteChar+0x1e4>
 8000fa2:	f899 c001 	ldrb.w	ip, [r9, #1]
 8000fa6:	fb05 f202 	mul.w	r2, r5, r2
 8000faa:	fb0c 4a02 	mla	sl, ip, r2, r4
 8000fae:	00ea      	lsls	r2, r5, #3
 8000fb0:	3a01      	subs	r2, #1
 8000fb2:	2501      	movs	r5, #1
 8000fb4:	fa05 f202 	lsl.w	r2, r5, r2
 8000fb8:	6a74      	ldr	r4, [r6, #36]	; 0x24
 8000fba:	9204      	str	r2, [sp, #16]
 8000fbc:	b1a1      	cbz	r1, 8000fe8 <LCD_WriteChar+0xd8>
 8000fbe:	f1bc 0f00 	cmp.w	ip, #0
 8000fc2:	f000 8097 	beq.w	80010f4 <LCD_WriteChar+0x1e4>
 8000fc6:	f04f 0800 	mov.w	r8, #0
 8000fca:	9311      	str	r3, [sp, #68]	; 0x44
 8000fcc:	4615      	mov	r5, r2
 8000fce:	4603      	mov	r3, r0
 8000fd0:	4630      	mov	r0, r6
 8000fd2:	4646      	mov	r6, r8
 8000fd4:	9902      	ldr	r1, [sp, #8]
 8000fd6:	2903      	cmp	r1, #3
 8000fd8:	f200 8091 	bhi.w	80010fe <LCD_WriteChar+0x1ee>
 8000fdc:	e8df f011 	tbh	[pc, r1, lsl #1]
 8000fe0:	00d700c7 	.word	0x00d700c7
 8000fe4:	008d00ca 	.word	0x008d00ca
 8000fe8:	89b2      	ldrh	r2, [r6, #12]
 8000fea:	9d03      	ldr	r5, [sp, #12]
 8000fec:	f8b6 e00a 	ldrh.w	lr, [r6, #10]
 8000ff0:	f10b 33ff 	add.w	r3, fp, #4294967295
 8000ff4:	4413      	add	r3, r2
 8000ff6:	445a      	add	r2, fp
 8000ff8:	b291      	uxth	r1, r2
 8000ffa:	1e6a      	subs	r2, r5, #1
 8000ffc:	4472      	add	r2, lr
 8000ffe:	4402      	add	r2, r0
 8001000:	4628      	mov	r0, r5
 8001002:	4463      	add	r3, ip
 8001004:	4470      	add	r0, lr
 8001006:	b292      	uxth	r2, r2
 8001008:	b29b      	uxth	r3, r3
 800100a:	69b5      	ldr	r5, [r6, #24]
 800100c:	b280      	uxth	r0, r0
 800100e:	47a8      	blx	r5
 8001010:	4601      	mov	r1, r0
 8001012:	4630      	mov	r0, r6
 8001014:	f7ff fc62 	bl	80008dc <LCD_String_Interpretator>
 8001018:	6c32      	ldr	r2, [r6, #64]	; 0x40
 800101a:	b11a      	cbz	r2, 8001024 <LCD_WriteChar+0x114>
 800101c:	f8b6 3044 	ldrh.w	r3, [r6, #68]	; 0x44
 8001020:	041b      	lsls	r3, r3, #16
 8001022:	6193      	str	r3, [r2, #24]
 8001024:	6bb3      	ldr	r3, [r6, #56]	; 0x38
 8001026:	8fb1      	ldrh	r1, [r6, #60]	; 0x3c
 8001028:	6199      	str	r1, [r3, #24]
 800102a:	6823      	ldr	r3, [r4, #0]
 800102c:	f023 0340 	bic.w	r3, r3, #64	; 0x40
 8001030:	6023      	str	r3, [r4, #0]
 8001032:	6823      	ldr	r3, [r4, #0]
 8001034:	f423 432c 	bic.w	r3, r3, #44032	; 0xac00
 8001038:	6023      	str	r3, [r4, #0]
 800103a:	f896 3048 	ldrb.w	r3, [r6, #72]	; 0x48
 800103e:	2b02      	cmp	r3, #2
 8001040:	f000 80ab 	beq.w	800119a <LCD_WriteChar+0x28a>
 8001044:	6823      	ldr	r3, [r4, #0]
 8001046:	f043 0340 	orr.w	r3, r3, #64	; 0x40
 800104a:	6023      	str	r3, [r4, #0]
 800104c:	f899 3001 	ldrb.w	r3, [r9, #1]
 8001050:	2b00      	cmp	r3, #0
 8001052:	d041      	beq.n	80010d8 <LCD_WriteChar+0x1c8>
 8001054:	f899 c000 	ldrb.w	ip, [r9]
 8001058:	f8dd e004 	ldr.w	lr, [sp, #4]
 800105c:	9d04      	ldr	r5, [sp, #16]
 800105e:	2000      	movs	r0, #0
 8001060:	f1be 0f01 	cmp.w	lr, #1
 8001064:	f000 80af 	beq.w	80011c6 <LCD_WriteChar+0x2b6>
 8001068:	f1be 0f02 	cmp.w	lr, #2
 800106c:	f000 80ae 	beq.w	80011cc <LCD_WriteChar+0x2bc>
 8001070:	f1be 0f03 	cmp.w	lr, #3
 8001074:	f000 80ad 	beq.w	80011d2 <LCD_WriteChar+0x2c2>
 8001078:	f8da 1000 	ldr.w	r1, [sl]
 800107c:	44f2      	add	sl, lr
 800107e:	f1bc 0f00 	cmp.w	ip, #0
 8001082:	d025      	beq.n	80010d0 <LCD_WriteChar+0x1c0>
 8001084:	2200      	movs	r2, #0
 8001086:	fa01 f302 	lsl.w	r3, r1, r2
 800108a:	422b      	tst	r3, r5
 800108c:	bf14      	ite	ne
 800108e:	46c4      	movne	ip, r8
 8001090:	46bc      	moveq	ip, r7
 8001092:	68a3      	ldr	r3, [r4, #8]
 8001094:	079b      	lsls	r3, r3, #30
 8001096:	d5fc      	bpl.n	8001092 <LCD_WriteChar+0x182>
 8001098:	f896 3048 	ldrb.w	r3, [r6, #72]	; 0x48
 800109c:	2b02      	cmp	r3, #2
 800109e:	f040 8081 	bne.w	80011a4 <LCD_WriteChar+0x294>
 80010a2:	f8a4 c00c 	strh.w	ip, [r4, #12]
 80010a6:	f899 c000 	ldrb.w	ip, [r9]
 80010aa:	3201      	adds	r2, #1
 80010ac:	4594      	cmp	ip, r2
 80010ae:	dd0d      	ble.n	80010cc <LCD_WriteChar+0x1bc>
 80010b0:	fa01 f302 	lsl.w	r3, r1, r2
 80010b4:	422b      	tst	r3, r5
 80010b6:	bf14      	ite	ne
 80010b8:	46c3      	movne	fp, r8
 80010ba:	46bb      	moveq	fp, r7
 80010bc:	68a3      	ldr	r3, [r4, #8]
 80010be:	079b      	lsls	r3, r3, #30
 80010c0:	d5fc      	bpl.n	80010bc <LCD_WriteChar+0x1ac>
 80010c2:	3201      	adds	r2, #1
 80010c4:	4594      	cmp	ip, r2
 80010c6:	f8a4 b00c 	strh.w	fp, [r4, #12]
 80010ca:	dcf1      	bgt.n	80010b0 <LCD_WriteChar+0x1a0>
 80010cc:	f899 3001 	ldrb.w	r3, [r9, #1]
 80010d0:	3001      	adds	r0, #1
 80010d2:	4283      	cmp	r3, r0
 80010d4:	dcc4      	bgt.n	8001060 <LCD_WriteChar+0x150>
 80010d6:	6c32      	ldr	r2, [r6, #64]	; 0x40
 80010d8:	68a3      	ldr	r3, [r4, #8]
 80010da:	0799      	lsls	r1, r3, #30
 80010dc:	d5fc      	bpl.n	80010d8 <LCD_WriteChar+0x1c8>
 80010de:	68a3      	ldr	r3, [r4, #8]
 80010e0:	061b      	lsls	r3, r3, #24
 80010e2:	d4fc      	bmi.n	80010de <LCD_WriteChar+0x1ce>
 80010e4:	6823      	ldr	r3, [r4, #0]
 80010e6:	f023 0340 	bic.w	r3, r3, #64	; 0x40
 80010ea:	6023      	str	r3, [r4, #0]
 80010ec:	b112      	cbz	r2, 80010f4 <LCD_WriteChar+0x1e4>
 80010ee:	f8b6 3044 	ldrh.w	r3, [r6, #68]	; 0x44
 80010f2:	6193      	str	r3, [r2, #24]
 80010f4:	b007      	add	sp, #28
 80010f6:	e8bd 8ff0 	ldmia.w	sp!, {r4, r5, r6, r7, r8, r9, sl, fp, pc}
 80010fa:	f8da 8000 	ldr.w	r8, [sl]
 80010fe:	9a01      	ldr	r2, [sp, #4]
 8001100:	4492      	add	sl, r2
 8001102:	2b00      	cmp	r3, #0
 8001104:	d0f6      	beq.n	80010f4 <LCD_WriteChar+0x1e4>
 8001106:	9c03      	ldr	r4, [sp, #12]
 8001108:	2700      	movs	r7, #0
 800110a:	fa0f f28b 	sxth.w	r2, fp
 800110e:	e003      	b.n	8001118 <LCD_WriteChar+0x208>
 8001110:	3401      	adds	r4, #1
 8001112:	42bb      	cmp	r3, r7
 8001114:	b2a4      	uxth	r4, r4
 8001116:	dd20      	ble.n	800115a <LCD_WriteChar+0x24a>
 8001118:	fa08 f107 	lsl.w	r1, r8, r7
 800111c:	4229      	tst	r1, r5
 800111e:	f107 0701 	add.w	r7, r7, #1
 8001122:	d0f5      	beq.n	8001110 <LCD_WriteChar+0x200>
 8001124:	f8b0 c004 	ldrh.w	ip, [r0, #4]
 8001128:	b221      	sxth	r1, r4
 800112a:	458c      	cmp	ip, r1
 800112c:	ea4b 0e04 	orr.w	lr, fp, r4
 8001130:	ddee      	ble.n	8001110 <LCD_WriteChar+0x200>
 8001132:	f8b0 c006 	ldrh.w	ip, [r0, #6]
 8001136:	4594      	cmp	ip, r2
 8001138:	ddea      	ble.n	8001110 <LCD_WriteChar+0x200>
 800113a:	f41e 4f00 	tst.w	lr, #32768	; 0x8000
 800113e:	d1e7      	bne.n	8001110 <LCD_WriteChar+0x200>
 8001140:	9b11      	ldr	r3, [sp, #68]	; 0x44
 8001142:	e9cd 0204 	strd	r0, r2, [sp, #16]
 8001146:	f7ff fc3f 	bl	80009c8 <LCD_DrawPixel.part.0>
 800114a:	f899 3000 	ldrb.w	r3, [r9]
 800114e:	3401      	adds	r4, #1
 8001150:	42bb      	cmp	r3, r7
 8001152:	e9dd 0204 	ldrd	r0, r2, [sp, #16]
 8001156:	b2a4      	uxth	r4, r4
 8001158:	dcde      	bgt.n	8001118 <LCD_WriteChar+0x208>
 800115a:	f899 2001 	ldrb.w	r2, [r9, #1]
 800115e:	3601      	adds	r6, #1
 8001160:	4296      	cmp	r6, r2
 8001162:	dac7      	bge.n	80010f4 <LCD_WriteChar+0x1e4>
 8001164:	f10b 0b01 	add.w	fp, fp, #1
 8001168:	fa1f fb8b 	uxth.w	fp, fp
 800116c:	e732      	b.n	8000fd4 <LCD_WriteChar+0xc4>
 800116e:	f89a 8000 	ldrb.w	r8, [sl]
 8001172:	e7c4      	b.n	80010fe <LCD_WriteChar+0x1ee>
 8001174:	f89a 8002 	ldrb.w	r8, [sl, #2]
 8001178:	f89a 2001 	ldrb.w	r2, [sl, #1]
 800117c:	ea4f 4808 	mov.w	r8, r8, lsl #16
 8001180:	ea48 2802 	orr.w	r8, r8, r2, lsl #8
 8001184:	f89a 2000 	ldrb.w	r2, [sl]
 8001188:	ea48 0802 	orr.w	r8, r8, r2
 800118c:	e7b7      	b.n	80010fe <LCD_WriteChar+0x1ee>
 800118e:	f8ba 8000 	ldrh.w	r8, [sl]
 8001192:	e7b4      	b.n	80010fe <LCD_WriteChar+0x1ee>
 8001194:	1a82      	subs	r2, r0, r2
 8001196:	b2d2      	uxtb	r2, r2
 8001198:	e6f9      	b.n	8000f8e <LCD_WriteChar+0x7e>
 800119a:	6823      	ldr	r3, [r4, #0]
 800119c:	f443 6300 	orr.w	r3, r3, #2048	; 0x800
 80011a0:	6023      	str	r3, [r4, #0]
 80011a2:	e74f      	b.n	8001044 <LCD_WriteChar+0x134>
 80011a4:	fa5f f38c 	uxtb.w	r3, ip
 80011a8:	7323      	strb	r3, [r4, #12]
 80011aa:	f3cc 2c07 	ubfx	ip, ip, #8, #8
 80011ae:	68a3      	ldr	r3, [r4, #8]
 80011b0:	079b      	lsls	r3, r3, #30
 80011b2:	d5fc      	bpl.n	80011ae <LCD_WriteChar+0x29e>
 80011b4:	f884 c00c 	strb.w	ip, [r4, #12]
 80011b8:	f899 c000 	ldrb.w	ip, [r9]
 80011bc:	3201      	adds	r2, #1
 80011be:	4562      	cmp	r2, ip
 80011c0:	f6ff af61 	blt.w	8001086 <LCD_WriteChar+0x176>
 80011c4:	e782      	b.n	80010cc <LCD_WriteChar+0x1bc>
 80011c6:	f89a 1000 	ldrb.w	r1, [sl]
 80011ca:	e757      	b.n	800107c <LCD_WriteChar+0x16c>
 80011cc:	f8ba 1000 	ldrh.w	r1, [sl]
 80011d0:	e754      	b.n	800107c <LCD_WriteChar+0x16c>
 80011d2:	f89a 1002 	ldrb.w	r1, [sl, #2]
 80011d6:	f89a 2001 	ldrb.w	r2, [sl, #1]
 80011da:	0409      	lsls	r1, r1, #16
 80011dc:	ea41 2102 	orr.w	r1, r1, r2, lsl #8
 80011e0:	f89a 2000 	ldrb.w	r2, [sl]
 80011e4:	4311      	orrs	r1, r2
 80011e6:	e749      	b.n	800107c <LCD_WriteChar+0x16c>
 80011e8:	fffff800 	.word	0xfffff800

080011ec <LCD_WriteString>:
 80011ec:	e92d 4ff0 	stmdb	sp!, {r4, r5, r6, r7, r8, r9, sl, fp, lr}
 80011f0:	461f      	mov	r7, r3
 80011f2:	b085      	sub	sp, #20
 80011f4:	781b      	ldrb	r3, [r3, #0]
 80011f6:	9e0e      	ldr	r6, [sp, #56]	; 0x38
 80011f8:	f89d a044 	ldrb.w	sl, [sp, #68]	; 0x44
 80011fc:	e9dd 890f 	ldrd	r8, r9, [sp, #60]	; 0x3c
 8001200:	4605      	mov	r5, r0
 8001202:	460c      	mov	r4, r1
 8001204:	4693      	mov	fp, r2
 8001206:	b1f3      	cbz	r3, 8001246 <LCD_WriteString+0x5a>
 8001208:	7831      	ldrb	r1, [r6, #0]
 800120a:	88aa      	ldrh	r2, [r5, #4]
 800120c:	4421      	add	r1, r4
 800120e:	4291      	cmp	r1, r2
 8001210:	4628      	mov	r0, r5
 8001212:	dd09      	ble.n	8001228 <LCD_WriteString+0x3c>
 8001214:	7872      	ldrb	r2, [r6, #1]
 8001216:	88e9      	ldrh	r1, [r5, #6]
 8001218:	4493      	add	fp, r2
 800121a:	fa1f fb8b 	uxth.w	fp, fp
 800121e:	445a      	add	r2, fp
 8001220:	428a      	cmp	r2, r1
 8001222:	f04f 0400 	mov.w	r4, #0
 8001226:	dc0e      	bgt.n	8001246 <LCD_WriteString+0x5a>
 8001228:	4621      	mov	r1, r4
 800122a:	e9cd 9a02 	strd	r9, sl, [sp, #8]
 800122e:	e9cd 6800 	strd	r6, r8, [sp]
 8001232:	465a      	mov	r2, fp
 8001234:	f7ff fe6c 	bl	8000f10 <LCD_WriteChar>
 8001238:	7831      	ldrb	r1, [r6, #0]
 800123a:	f817 3f01 	ldrb.w	r3, [r7, #1]!
 800123e:	440c      	add	r4, r1
 8001240:	b2a4      	uxth	r4, r4
 8001242:	2b00      	cmp	r3, #0
 8001244:	d1e1      	bne.n	800120a <LCD_WriteString+0x1e>
 8001246:	81ec      	strh	r4, [r5, #14]
 8001248:	f8a5 b010 	strh.w	fp, [r5, #16]
 800124c:	b005      	add	sp, #20
 800124e:	e8bd 8ff0 	ldmia.w	sp!, {r4, r5, r6, r7, r8, r9, sl, fp, pc}
 8001252:	bf00      	nop

08001254 <ST7789_Init>:
 8001254:	3801      	subs	r0, #1
 8001256:	b2c0      	uxtb	r0, r0
 8001258:	2802      	cmp	r0, #2
 800125a:	bf9c      	itt	ls
 800125c:	4b03      	ldrls	r3, [pc, #12]	; (800126c <ST7789_Init+0x18>)
 800125e:	5c1b      	ldrbls	r3, [r3, r0]
 8001260:	4803      	ldr	r0, [pc, #12]	; (8001270 <ST7789_Init+0x1c>)
 8001262:	bf88      	it	hi
 8001264:	2300      	movhi	r3, #0
 8001266:	75c3      	strb	r3, [r0, #23]
 8001268:	4770      	bx	lr
 800126a:	bf00      	nop
 800126c:	08004424 	.word	0x08004424
 8001270:	20000010 	.word	0x20000010

08001274 <ST7789_SetWindow>:
 8001274:	b500      	push	{lr}
 8001276:	ea4f 2c10 	mov.w	ip, r0, lsr #8
 800127a:	f04f 0e00 	mov.w	lr, #0
 800127e:	f36c 0e07 	bfi	lr, ip, #0, #8
 8001282:	f360 2e0f 	bfi	lr, r0, #8, #8
 8001286:	0a10      	lsrs	r0, r2, #8
 8001288:	f360 4e17 	bfi	lr, r0, #16, #8
 800128c:	f362 6e1f 	bfi	lr, r2, #24, #8
 8001290:	f04f 0c00 	mov.w	ip, #0
 8001294:	0a0a      	lsrs	r2, r1, #8
 8001296:	f362 0c07 	bfi	ip, r2, #0, #8
 800129a:	f361 2c0f 	bfi	ip, r1, #8, #8
 800129e:	0a1a      	lsrs	r2, r3, #8
 80012a0:	4805      	ldr	r0, [pc, #20]	; (80012b8 <ST7789_SetWindow+0x44>)
 80012a2:	f362 4c17 	bfi	ip, r2, #16, #8
 80012a6:	f363 6c1f 	bfi	ip, r3, #24, #8
 80012aa:	f8c0 e003 	str.w	lr, [r0, #3]
 80012ae:	f8c0 c00a 	str.w	ip, [r0, #10]
 80012b2:	f85d fb04 	ldr.w	pc, [sp], #4
 80012b6:	bf00      	nop
 80012b8:	20000080 	.word	0x20000080

080012bc <ST7789_SleepIn>:
 80012bc:	4800      	ldr	r0, [pc, #0]	; (80012c0 <ST7789_SleepIn+0x4>)
 80012be:	4770      	bx	lr
 80012c0:	20000094 	.word	0x20000094

080012c4 <ST7789_SleepOut>:
 80012c4:	4800      	ldr	r0, [pc, #0]	; (80012c8 <ST7789_SleepOut+0x4>)
 80012c6:	4770      	bx	lr
 80012c8:	2000009c 	.word	0x2000009c

080012cc <LL_GPIO_Init>:
 80012cc:	e92d 47f0 	stmdb	sp!, {r4, r5, r6, r7, r8, r9, sl, lr}
 80012d0:	680c      	ldr	r4, [r1, #0]
 80012d2:	fa94 f2a4 	rbit	r2, r4
 80012d6:	fab2 f282 	clz	r2, r2
 80012da:	fa34 f302 	lsrs.w	r3, r4, r2
 80012de:	d07d      	beq.n	80013dc <LL_GPIO_Init+0x110>
 80012e0:	f04f 0e01 	mov.w	lr, #1
 80012e4:	f04f 0c03 	mov.w	ip, #3
 80012e8:	f04f 0a0f 	mov.w	sl, #15
 80012ec:	e017      	b.n	800131e <LL_GPIO_Init+0x52>
 80012ee:	f8d0 8000 	ldr.w	r8, [r0]
 80012f2:	fa93 f7a3 	rbit	r7, r3
 80012f6:	fab7 f787 	clz	r7, r7
 80012fa:	fa93 f3a3 	rbit	r3, r3
 80012fe:	fab3 f383 	clz	r3, r3
 8001302:	007f      	lsls	r7, r7, #1
 8001304:	fa0c f707 	lsl.w	r7, ip, r7
 8001308:	005b      	lsls	r3, r3, #1
 800130a:	ea28 0807 	bic.w	r8, r8, r7
 800130e:	409d      	lsls	r5, r3
 8001310:	ea48 0505 	orr.w	r5, r8, r5
 8001314:	6005      	str	r5, [r0, #0]
 8001316:	3201      	adds	r2, #1
 8001318:	fa34 f302 	lsrs.w	r3, r4, r2
 800131c:	d05e      	beq.n	80013dc <LL_GPIO_Init+0x110>
 800131e:	fa0e f302 	lsl.w	r3, lr, r2
 8001322:	4023      	ands	r3, r4
 8001324:	d0f7      	beq.n	8001316 <LL_GPIO_Init+0x4a>
 8001326:	684d      	ldr	r5, [r1, #4]
 8001328:	1e6f      	subs	r7, r5, #1
 800132a:	2f01      	cmp	r7, #1
 800132c:	d81f      	bhi.n	800136e <LL_GPIO_Init+0xa2>
 800132e:	f8d0 8008 	ldr.w	r8, [r0, #8]
 8001332:	fa93 f7a3 	rbit	r7, r3
 8001336:	fab7 f787 	clz	r7, r7
 800133a:	fa93 f9a3 	rbit	r9, r3
 800133e:	688e      	ldr	r6, [r1, #8]
 8001340:	fab9 f989 	clz	r9, r9
 8001344:	007f      	lsls	r7, r7, #1
 8001346:	fa0c f707 	lsl.w	r7, ip, r7
 800134a:	ea4f 0949 	mov.w	r9, r9, lsl #1
 800134e:	ea28 0707 	bic.w	r7, r8, r7
 8001352:	fa06 f809 	lsl.w	r8, r6, r9
 8001356:	ea47 0708 	orr.w	r7, r7, r8
 800135a:	6087      	str	r7, [r0, #8]
 800135c:	6847      	ldr	r7, [r0, #4]
 800135e:	68ce      	ldr	r6, [r1, #12]
 8001360:	ea27 0703 	bic.w	r7, r7, r3
 8001364:	fb06 f803 	mul.w	r8, r6, r3
 8001368:	ea47 0708 	orr.w	r7, r7, r8
 800136c:	6047      	str	r7, [r0, #4]
 800136e:	f8d0 800c 	ldr.w	r8, [r0, #12]
 8001372:	fa93 f7a3 	rbit	r7, r3
 8001376:	fab7 f787 	clz	r7, r7
 800137a:	fa93 f9a3 	rbit	r9, r3
 800137e:	007f      	lsls	r7, r7, #1
 8001380:	fa0c f707 	lsl.w	r7, ip, r7
 8001384:	ea28 0807 	bic.w	r8, r8, r7
 8001388:	fab9 f989 	clz	r9, r9
 800138c:	690f      	ldr	r7, [r1, #16]
 800138e:	ea4f 0949 	mov.w	r9, r9, lsl #1
 8001392:	fa07 f909 	lsl.w	r9, r7, r9
 8001396:	ea48 0709 	orr.w	r7, r8, r9
 800139a:	2d02      	cmp	r5, #2
 800139c:	60c7      	str	r7, [r0, #12]
 800139e:	d1a6      	bne.n	80012ee <LL_GPIO_Init+0x22>
 80013a0:	fa93 f7a3 	rbit	r7, r3
 80013a4:	fab7 f787 	clz	r7, r7
 80013a8:	2f07      	cmp	r7, #7
 80013aa:	dc1a      	bgt.n	80013e2 <LL_GPIO_Init+0x116>
 80013ac:	f8d0 8020 	ldr.w	r8, [r0, #32]
 80013b0:	fa93 f7a3 	rbit	r7, r3
 80013b4:	fab7 f787 	clz	r7, r7
 80013b8:	fa93 f9a3 	rbit	r9, r3
 80013bc:	694e      	ldr	r6, [r1, #20]
 80013be:	fab9 f989 	clz	r9, r9
 80013c2:	00bf      	lsls	r7, r7, #2
 80013c4:	fa0a f707 	lsl.w	r7, sl, r7
 80013c8:	ea4f 0989 	mov.w	r9, r9, lsl #2
 80013cc:	ea28 0707 	bic.w	r7, r8, r7
 80013d0:	fa06 f809 	lsl.w	r8, r6, r9
 80013d4:	ea47 0708 	orr.w	r7, r7, r8
 80013d8:	6207      	str	r7, [r0, #32]
 80013da:	e788      	b.n	80012ee <LL_GPIO_Init+0x22>
 80013dc:	2000      	movs	r0, #0
 80013de:	e8bd 87f0 	ldmia.w	sp!, {r4, r5, r6, r7, r8, r9, sl, pc}
 80013e2:	f8d0 9024 	ldr.w	r9, [r0, #36]	; 0x24
 80013e6:	0a1f      	lsrs	r7, r3, #8
 80013e8:	fa97 f8a7 	rbit	r8, r7
 80013ec:	fab8 f888 	clz	r8, r8
 80013f0:	fa97 f7a7 	rbit	r7, r7
 80013f4:	694e      	ldr	r6, [r1, #20]
 80013f6:	fab7 f787 	clz	r7, r7
 80013fa:	ea4f 0888 	mov.w	r8, r8, lsl #2
 80013fe:	fa0a f808 	lsl.w	r8, sl, r8
 8001402:	00bf      	lsls	r7, r7, #2
 8001404:	ea29 0908 	bic.w	r9, r9, r8
 8001408:	fa06 f707 	lsl.w	r7, r6, r7
 800140c:	ea49 0707 	orr.w	r7, r9, r7
 8001410:	6247      	str	r7, [r0, #36]	; 0x24
 8001412:	e76c      	b.n	80012ee <LL_GPIO_Init+0x22>

08001414 <LL_SPI_Init>:
 8001414:	4602      	mov	r2, r0
 8001416:	6800      	ldr	r0, [r0, #0]
 8001418:	f010 0040 	ands.w	r0, r0, #64	; 0x40
 800141c:	d128      	bne.n	8001470 <LL_SPI_Init+0x5c>
 800141e:	6813      	ldr	r3, [r2, #0]
 8001420:	b430      	push	{r4, r5}
 8001422:	f423 4c7f 	bic.w	ip, r3, #65280	; 0xff00
 8001426:	e9d1 3500 	ldrd	r3, r5, [r1]
 800142a:	432b      	orrs	r3, r5
 800142c:	688d      	ldr	r5, [r1, #8]
 800142e:	694c      	ldr	r4, [r1, #20]
 8001430:	432b      	orrs	r3, r5
 8001432:	68cd      	ldr	r5, [r1, #12]
 8001434:	432b      	orrs	r3, r5
 8001436:	690d      	ldr	r5, [r1, #16]
 8001438:	432b      	orrs	r3, r5
 800143a:	698d      	ldr	r5, [r1, #24]
 800143c:	4323      	orrs	r3, r4
 800143e:	432b      	orrs	r3, r5
 8001440:	69cd      	ldr	r5, [r1, #28]
 8001442:	432b      	orrs	r3, r5
 8001444:	6a0d      	ldr	r5, [r1, #32]
 8001446:	f02c 0cbf 	bic.w	ip, ip, #191	; 0xbf
 800144a:	432b      	orrs	r3, r5
 800144c:	ea43 030c 	orr.w	r3, r3, ip
 8001450:	6013      	str	r3, [r2, #0]
 8001452:	6853      	ldr	r3, [r2, #4]
 8001454:	f023 0304 	bic.w	r3, r3, #4
 8001458:	ea43 4314 	orr.w	r3, r3, r4, lsr #16
 800145c:	f5b5 5f00 	cmp.w	r5, #8192	; 0x2000
 8001460:	6053      	str	r3, [r2, #4]
 8001462:	d00b      	beq.n	800147c <LL_SPI_Init+0x68>
 8001464:	69d3      	ldr	r3, [r2, #28]
 8001466:	f423 6300 	bic.w	r3, r3, #2048	; 0x800
 800146a:	bc30      	pop	{r4, r5}
 800146c:	61d3      	str	r3, [r2, #28]
 800146e:	4770      	bx	lr
 8001470:	69d3      	ldr	r3, [r2, #28]
 8001472:	f423 6300 	bic.w	r3, r3, #2048	; 0x800
 8001476:	2001      	movs	r0, #1
 8001478:	61d3      	str	r3, [r2, #28]
 800147a:	4770      	bx	lr
 800147c:	8c8b      	ldrh	r3, [r1, #36]	; 0x24
 800147e:	6113      	str	r3, [r2, #16]
 8001480:	e7f0      	b.n	8001464 <LL_SPI_Init+0x50>
 8001482:	bf00      	nop

08001484 <LL_TIM_Init>:
 8001484:	4a24      	ldr	r2, [pc, #144]	; (8001518 <LL_TIM_Init+0x94>)
 8001486:	6803      	ldr	r3, [r0, #0]
 8001488:	4290      	cmp	r0, r2
 800148a:	b430      	push	{r4, r5}
 800148c:	d034      	beq.n	80014f8 <LL_TIM_Init+0x74>
 800148e:	f1b0 4f80 	cmp.w	r0, #1073741824	; 0x40000000
 8001492:	d01d      	beq.n	80014d0 <LL_TIM_Init+0x4c>
 8001494:	f5a2 427c 	sub.w	r2, r2, #64512	; 0xfc00
 8001498:	4290      	cmp	r0, r2
 800149a:	d019      	beq.n	80014d0 <LL_TIM_Init+0x4c>
 800149c:	f502 6280 	add.w	r2, r2, #1024	; 0x400
 80014a0:	4290      	cmp	r0, r2
 80014a2:	d015      	beq.n	80014d0 <LL_TIM_Init+0x4c>
 80014a4:	f502 6280 	add.w	r2, r2, #1024	; 0x400
 80014a8:	4290      	cmp	r0, r2
 80014aa:	d011      	beq.n	80014d0 <LL_TIM_Init+0x4c>
 80014ac:	f502 329a 	add.w	r2, r2, #78848	; 0x13400
 80014b0:	4290      	cmp	r0, r2
 80014b2:	d011      	beq.n	80014d8 <LL_TIM_Init+0x54>
 80014b4:	f502 6280 	add.w	r2, r2, #1024	; 0x400
 80014b8:	4290      	cmp	r0, r2
 80014ba:	d00d      	beq.n	80014d8 <LL_TIM_Init+0x54>
 80014bc:	f502 6280 	add.w	r2, r2, #1024	; 0x400
 80014c0:	4290      	cmp	r0, r2
 80014c2:	d009      	beq.n	80014d8 <LL_TIM_Init+0x54>
 80014c4:	688c      	ldr	r4, [r1, #8]
 80014c6:	880a      	ldrh	r2, [r1, #0]
 80014c8:	6003      	str	r3, [r0, #0]
 80014ca:	62c4      	str	r4, [r0, #44]	; 0x2c
 80014cc:	6282      	str	r2, [r0, #40]	; 0x28
 80014ce:	e00c      	b.n	80014ea <LL_TIM_Init+0x66>
 80014d0:	684a      	ldr	r2, [r1, #4]
 80014d2:	f023 0370 	bic.w	r3, r3, #112	; 0x70
 80014d6:	4313      	orrs	r3, r2
 80014d8:	68cd      	ldr	r5, [r1, #12]
 80014da:	688c      	ldr	r4, [r1, #8]
 80014dc:	880a      	ldrh	r2, [r1, #0]
 80014de:	f423 7340 	bic.w	r3, r3, #768	; 0x300
 80014e2:	432b      	orrs	r3, r5
 80014e4:	6003      	str	r3, [r0, #0]
 80014e6:	62c4      	str	r4, [r0, #44]	; 0x2c
 80014e8:	6282      	str	r2, [r0, #40]	; 0x28
 80014ea:	6943      	ldr	r3, [r0, #20]
 80014ec:	f043 0301 	orr.w	r3, r3, #1
 80014f0:	6143      	str	r3, [r0, #20]
 80014f2:	bc30      	pop	{r4, r5}
 80014f4:	2000      	movs	r0, #0
 80014f6:	4770      	bx	lr
 80014f8:	684c      	ldr	r4, [r1, #4]
 80014fa:	68ca      	ldr	r2, [r1, #12]
 80014fc:	f023 0370 	bic.w	r3, r3, #112	; 0x70
 8001500:	4323      	orrs	r3, r4
 8001502:	f423 7340 	bic.w	r3, r3, #768	; 0x300
 8001506:	4313      	orrs	r3, r2
 8001508:	6003      	str	r3, [r0, #0]
 800150a:	688a      	ldr	r2, [r1, #8]
 800150c:	880b      	ldrh	r3, [r1, #0]
 800150e:	62c2      	str	r2, [r0, #44]	; 0x2c
 8001510:	6283      	str	r3, [r0, #40]	; 0x28
 8001512:	690b      	ldr	r3, [r1, #16]
 8001514:	6303      	str	r3, [r0, #48]	; 0x30
 8001516:	e7e8      	b.n	80014ea <LL_TIM_Init+0x66>
 8001518:	40010000 	.word	0x40010000

0800151c <LL_TIM_OC_Init>:
 800151c:	f5b1 7f80 	cmp.w	r1, #256	; 0x100
 8001520:	b430      	push	{r4, r5}
 8001522:	4603      	mov	r3, r0
 8001524:	d06c      	beq.n	8001600 <LL_TIM_OC_Init+0xe4>
 8001526:	d825      	bhi.n	8001574 <LL_TIM_OC_Init+0x58>
 8001528:	2901      	cmp	r1, #1
 800152a:	d04b      	beq.n	80015c4 <LL_TIM_OC_Init+0xa8>
 800152c:	2910      	cmp	r1, #16
 800152e:	d146      	bne.n	80015be <LL_TIM_OC_Init+0xa2>
 8001530:	6a01      	ldr	r1, [r0, #32]
 8001532:	6915      	ldr	r5, [r2, #16]
 8001534:	f021 0110 	bic.w	r1, r1, #16
 8001538:	6201      	str	r1, [r0, #32]
 800153a:	6a01      	ldr	r1, [r0, #32]
 800153c:	6840      	ldr	r0, [r0, #4]
 800153e:	699c      	ldr	r4, [r3, #24]
 8001540:	f021 0120 	bic.w	r1, r1, #32
 8001544:	ea41 1105 	orr.w	r1, r1, r5, lsl #4
 8001548:	6815      	ldr	r5, [r2, #0]
 800154a:	f424 44e6 	bic.w	r4, r4, #29440	; 0x7300
 800154e:	ea44 2405 	orr.w	r4, r4, r5, lsl #8
 8001552:	6855      	ldr	r5, [r2, #4]
 8001554:	f021 0110 	bic.w	r1, r1, #16
 8001558:	ea41 1105 	orr.w	r1, r1, r5, lsl #4
 800155c:	4d5a      	ldr	r5, [pc, #360]	; (80016c8 <LL_TIM_OC_Init+0x1ac>)
 800155e:	42ab      	cmp	r3, r5
 8001560:	f000 8097 	beq.w	8001692 <LL_TIM_OC_Init+0x176>
 8001564:	68d2      	ldr	r2, [r2, #12]
 8001566:	6058      	str	r0, [r3, #4]
 8001568:	619c      	str	r4, [r3, #24]
 800156a:	2000      	movs	r0, #0
 800156c:	639a      	str	r2, [r3, #56]	; 0x38
 800156e:	bc30      	pop	{r4, r5}
 8001570:	6219      	str	r1, [r3, #32]
 8001572:	4770      	bx	lr
 8001574:	f5b1 5f80 	cmp.w	r1, #4096	; 0x1000
 8001578:	d121      	bne.n	80015be <LL_TIM_OC_Init+0xa2>
 800157a:	6a01      	ldr	r1, [r0, #32]
 800157c:	6915      	ldr	r5, [r2, #16]
 800157e:	f421 5180 	bic.w	r1, r1, #4096	; 0x1000
 8001582:	6201      	str	r1, [r0, #32]
 8001584:	6a01      	ldr	r1, [r0, #32]
 8001586:	6840      	ldr	r0, [r0, #4]
 8001588:	69dc      	ldr	r4, [r3, #28]
 800158a:	f421 5100 	bic.w	r1, r1, #8192	; 0x2000
 800158e:	ea41 3105 	orr.w	r1, r1, r5, lsl #12
 8001592:	6815      	ldr	r5, [r2, #0]
 8001594:	f424 44e6 	bic.w	r4, r4, #29440	; 0x7300
 8001598:	ea44 2405 	orr.w	r4, r4, r5, lsl #8
 800159c:	6855      	ldr	r5, [r2, #4]
 800159e:	f421 5180 	bic.w	r1, r1, #4096	; 0x1000
 80015a2:	ea41 3105 	orr.w	r1, r1, r5, lsl #12
 80015a6:	4d48      	ldr	r5, [pc, #288]	; (80016c8 <LL_TIM_OC_Init+0x1ac>)
 80015a8:	42ab      	cmp	r3, r5
 80015aa:	f000 8087 	beq.w	80016bc <LL_TIM_OC_Init+0x1a0>
 80015ae:	68d2      	ldr	r2, [r2, #12]
 80015b0:	6058      	str	r0, [r3, #4]
 80015b2:	61dc      	str	r4, [r3, #28]
 80015b4:	2000      	movs	r0, #0
 80015b6:	641a      	str	r2, [r3, #64]	; 0x40
 80015b8:	bc30      	pop	{r4, r5}
 80015ba:	6219      	str	r1, [r3, #32]
 80015bc:	4770      	bx	lr
 80015be:	2001      	movs	r0, #1
 80015c0:	bc30      	pop	{r4, r5}
 80015c2:	4770      	bx	lr
 80015c4:	6a01      	ldr	r1, [r0, #32]
 80015c6:	6915      	ldr	r5, [r2, #16]
 80015c8:	f021 0101 	bic.w	r1, r1, #1
 80015cc:	6201      	str	r1, [r0, #32]
 80015ce:	6a01      	ldr	r1, [r0, #32]
 80015d0:	6840      	ldr	r0, [r0, #4]
 80015d2:	699c      	ldr	r4, [r3, #24]
 80015d4:	f021 0102 	bic.w	r1, r1, #2
 80015d8:	4329      	orrs	r1, r5
 80015da:	6815      	ldr	r5, [r2, #0]
 80015dc:	f024 0473 	bic.w	r4, r4, #115	; 0x73
 80015e0:	432c      	orrs	r4, r5
 80015e2:	6855      	ldr	r5, [r2, #4]
 80015e4:	f021 0101 	bic.w	r1, r1, #1
 80015e8:	4329      	orrs	r1, r5
 80015ea:	4d37      	ldr	r5, [pc, #220]	; (80016c8 <LL_TIM_OC_Init+0x1ac>)
 80015ec:	42ab      	cmp	r3, r5
 80015ee:	d03c      	beq.n	800166a <LL_TIM_OC_Init+0x14e>
 80015f0:	68d2      	ldr	r2, [r2, #12]
 80015f2:	6058      	str	r0, [r3, #4]
 80015f4:	619c      	str	r4, [r3, #24]
 80015f6:	2000      	movs	r0, #0
 80015f8:	635a      	str	r2, [r3, #52]	; 0x34
 80015fa:	bc30      	pop	{r4, r5}
 80015fc:	6219      	str	r1, [r3, #32]
 80015fe:	4770      	bx	lr
 8001600:	6a01      	ldr	r1, [r0, #32]
 8001602:	6915      	ldr	r5, [r2, #16]
 8001604:	f421 7180 	bic.w	r1, r1, #256	; 0x100
 8001608:	6201      	str	r1, [r0, #32]
 800160a:	6a01      	ldr	r1, [r0, #32]
 800160c:	6840      	ldr	r0, [r0, #4]
 800160e:	69dc      	ldr	r4, [r3, #28]
 8001610:	f421 7100 	bic.w	r1, r1, #512	; 0x200
 8001614:	ea41 2105 	orr.w	r1, r1, r5, lsl #8
 8001618:	6815      	ldr	r5, [r2, #0]
 800161a:	f024 0473 	bic.w	r4, r4, #115	; 0x73
 800161e:	432c      	orrs	r4, r5
 8001620:	6855      	ldr	r5, [r2, #4]
 8001622:	f421 7180 	bic.w	r1, r1, #256	; 0x100
 8001626:	ea41 2105 	orr.w	r1, r1, r5, lsl #8
 800162a:	4d27      	ldr	r5, [pc, #156]	; (80016c8 <LL_TIM_OC_Init+0x1ac>)
 800162c:	42ab      	cmp	r3, r5
 800162e:	d007      	beq.n	8001640 <LL_TIM_OC_Init+0x124>
 8001630:	68d2      	ldr	r2, [r2, #12]
 8001632:	6058      	str	r0, [r3, #4]
 8001634:	61dc      	str	r4, [r3, #28]
 8001636:	2000      	movs	r0, #0
 8001638:	63da      	str	r2, [r3, #60]	; 0x3c
 800163a:	bc30      	pop	{r4, r5}
 800163c:	6219      	str	r1, [r3, #32]
 800163e:	4770      	bx	lr
 8001640:	6955      	ldr	r5, [r2, #20]
 8001642:	f421 6100 	bic.w	r1, r1, #2048	; 0x800
 8001646:	ea41 2185 	orr.w	r1, r1, r5, lsl #10
 800164a:	6995      	ldr	r5, [r2, #24]
 800164c:	f420 5080 	bic.w	r0, r0, #4096	; 0x1000
 8001650:	ea40 1005 	orr.w	r0, r0, r5, lsl #4
 8001654:	6895      	ldr	r5, [r2, #8]
 8001656:	f421 6180 	bic.w	r1, r1, #1024	; 0x400
 800165a:	ea41 2185 	orr.w	r1, r1, r5, lsl #10
 800165e:	69d5      	ldr	r5, [r2, #28]
 8001660:	f420 5000 	bic.w	r0, r0, #8192	; 0x2000
 8001664:	ea40 1045 	orr.w	r0, r0, r5, lsl #5
 8001668:	e7e2      	b.n	8001630 <LL_TIM_OC_Init+0x114>
 800166a:	6955      	ldr	r5, [r2, #20]
 800166c:	f021 0108 	bic.w	r1, r1, #8
 8001670:	ea41 0185 	orr.w	r1, r1, r5, lsl #2
 8001674:	6995      	ldr	r5, [r2, #24]
 8001676:	f420 7080 	bic.w	r0, r0, #256	; 0x100
 800167a:	4328      	orrs	r0, r5
 800167c:	6895      	ldr	r5, [r2, #8]
 800167e:	f021 0104 	bic.w	r1, r1, #4
 8001682:	ea41 0185 	orr.w	r1, r1, r5, lsl #2
 8001686:	69d5      	ldr	r5, [r2, #28]
 8001688:	f420 7000 	bic.w	r0, r0, #512	; 0x200
 800168c:	ea40 0045 	orr.w	r0, r0, r5, lsl #1
 8001690:	e7ae      	b.n	80015f0 <LL_TIM_OC_Init+0xd4>
 8001692:	6955      	ldr	r5, [r2, #20]
 8001694:	f021 0180 	bic.w	r1, r1, #128	; 0x80
 8001698:	ea41 1185 	orr.w	r1, r1, r5, lsl #6
 800169c:	6995      	ldr	r5, [r2, #24]
 800169e:	f420 6080 	bic.w	r0, r0, #1024	; 0x400
 80016a2:	ea40 0085 	orr.w	r0, r0, r5, lsl #2
 80016a6:	6895      	ldr	r5, [r2, #8]
 80016a8:	f021 0140 	bic.w	r1, r1, #64	; 0x40
 80016ac:	ea41 1185 	orr.w	r1, r1, r5, lsl #6
 80016b0:	69d5      	ldr	r5, [r2, #28]
 80016b2:	f420 6000 	bic.w	r0, r0, #2048	; 0x800
 80016b6:	ea40 00c5 	orr.w	r0, r0, r5, lsl #3
 80016ba:	e753      	b.n	8001564 <LL_TIM_OC_Init+0x48>
 80016bc:	6995      	ldr	r5, [r2, #24]
 80016be:	f420 4080 	bic.w	r0, r0, #16384	; 0x4000
 80016c2:	ea40 1085 	orr.w	r0, r0, r5, lsl #6
 80016c6:	e772      	b.n	80015ae <LL_TIM_OC_Init+0x92>
 80016c8:	40010000 	.word	0x40010000

080016cc <LL_Init1msTick>:
 80016cc:	4b06      	ldr	r3, [pc, #24]	; (80016e8 <LL_Init1msTick+0x1c>)
 80016ce:	fba3 2300 	umull	r2, r3, r3, r0
 80016d2:	099b      	lsrs	r3, r3, #6
 80016d4:	f04f 22e0 	mov.w	r2, #3758153728	; 0xe000e000
 80016d8:	3b01      	subs	r3, #1
 80016da:	2000      	movs	r0, #0
 80016dc:	2105      	movs	r1, #5
 80016de:	6153      	str	r3, [r2, #20]
 80016e0:	6190      	str	r0, [r2, #24]
 80016e2:	6111      	str	r1, [r2, #16]
 80016e4:	4770      	bx	lr
 80016e6:	bf00      	nop
 80016e8:	10624dd3 	.word	0x10624dd3

080016ec <LL_mDelay>:
 80016ec:	f04f 23e0 	mov.w	r3, #3758153728	; 0xe000e000
 80016f0:	b082      	sub	sp, #8
 80016f2:	691b      	ldr	r3, [r3, #16]
 80016f4:	9301      	str	r3, [sp, #4]
 80016f6:	1c42      	adds	r2, r0, #1
 80016f8:	9b01      	ldr	r3, [sp, #4]
 80016fa:	bf18      	it	ne
 80016fc:	3001      	addne	r0, #1
 80016fe:	f04f 22e0 	mov.w	r2, #3758153728	; 0xe000e000
 8001702:	6913      	ldr	r3, [r2, #16]
 8001704:	03db      	lsls	r3, r3, #15
 8001706:	d5fc      	bpl.n	8001702 <LL_mDelay+0x16>
 8001708:	3801      	subs	r0, #1
 800170a:	d1fa      	bne.n	8001702 <LL_mDelay+0x16>
 800170c:	b002      	add	sp, #8
 800170e:	4770      	bx	lr

08001710 <LL_SetSystemCoreClock>:
 8001710:	4b01      	ldr	r3, [pc, #4]	; (8001718 <LL_SetSystemCoreClock+0x8>)
 8001712:	6018      	str	r0, [r3, #0]
 8001714:	4770      	bx	lr
 8001716:	bf00      	nop
 8001718:	20000000 	.word	0x20000000

0800171c <__utoa>:
 800171c:	b5f0      	push	{r4, r5, r6, r7, lr}
 800171e:	4c1f      	ldr	r4, [pc, #124]	; (800179c <__utoa+0x80>)
 8001720:	b08b      	sub	sp, #44	; 0x2c
 8001722:	4605      	mov	r5, r0
 8001724:	460b      	mov	r3, r1
 8001726:	466e      	mov	r6, sp
 8001728:	f104 0c20 	add.w	ip, r4, #32
 800172c:	6820      	ldr	r0, [r4, #0]
 800172e:	6861      	ldr	r1, [r4, #4]
 8001730:	4637      	mov	r7, r6
 8001732:	c703      	stmia	r7!, {r0, r1}
 8001734:	3408      	adds	r4, #8
 8001736:	4564      	cmp	r4, ip
 8001738:	463e      	mov	r6, r7
 800173a:	d1f7      	bne.n	800172c <__utoa+0x10>
 800173c:	7921      	ldrb	r1, [r4, #4]
 800173e:	7139      	strb	r1, [r7, #4]
 8001740:	1e91      	subs	r1, r2, #2
 8001742:	6820      	ldr	r0, [r4, #0]
 8001744:	6038      	str	r0, [r7, #0]
 8001746:	2922      	cmp	r1, #34	; 0x22
 8001748:	f04f 0100 	mov.w	r1, #0
 800174c:	d904      	bls.n	8001758 <__utoa+0x3c>
 800174e:	7019      	strb	r1, [r3, #0]
 8001750:	460b      	mov	r3, r1
 8001752:	4618      	mov	r0, r3
 8001754:	b00b      	add	sp, #44	; 0x2c
 8001756:	bdf0      	pop	{r4, r5, r6, r7, pc}
 8001758:	1e58      	subs	r0, r3, #1
 800175a:	4684      	mov	ip, r0
 800175c:	fbb5 f7f2 	udiv	r7, r5, r2
 8001760:	fb02 5617 	mls	r6, r2, r7, r5
 8001764:	3628      	adds	r6, #40	; 0x28
 8001766:	446e      	add	r6, sp
 8001768:	460c      	mov	r4, r1
 800176a:	f816 6c28 	ldrb.w	r6, [r6, #-40]
 800176e:	f80c 6f01 	strb.w	r6, [ip, #1]!
 8001772:	462e      	mov	r6, r5
 8001774:	42b2      	cmp	r2, r6
 8001776:	f101 0101 	add.w	r1, r1, #1
 800177a:	463d      	mov	r5, r7
 800177c:	d9ee      	bls.n	800175c <__utoa+0x40>
 800177e:	2200      	movs	r2, #0
 8001780:	545a      	strb	r2, [r3, r1]
 8001782:	1919      	adds	r1, r3, r4
 8001784:	1aa5      	subs	r5, r4, r2
 8001786:	42aa      	cmp	r2, r5
 8001788:	dae3      	bge.n	8001752 <__utoa+0x36>
 800178a:	f810 5f01 	ldrb.w	r5, [r0, #1]!
 800178e:	780e      	ldrb	r6, [r1, #0]
 8001790:	7006      	strb	r6, [r0, #0]
 8001792:	3201      	adds	r2, #1
 8001794:	f801 5901 	strb.w	r5, [r1], #-1
 8001798:	e7f4      	b.n	8001784 <__utoa+0x68>
 800179a:	bf00      	nop
 800179c:	08004427 	.word	0x08004427

080017a0 <utoa>:
 80017a0:	f7ff bfbc 	b.w	800171c <__utoa>

080017a4 <memset>:
 80017a4:	4402      	add	r2, r0
 80017a6:	4603      	mov	r3, r0
 80017a8:	4293      	cmp	r3, r2
 80017aa:	d100      	bne.n	80017ae <memset+0xa>
 80017ac:	4770      	bx	lr
 80017ae:	f803 1b01 	strb.w	r1, [r3], #1
 80017b2:	e7f9      	b.n	80017a8 <memset+0x4>

080017b4 <__libc_init_array>:
 80017b4:	b570      	push	{r4, r5, r6, lr}
 80017b6:	4d0d      	ldr	r5, [pc, #52]	; (80017ec <__libc_init_array+0x38>)
 80017b8:	4c0d      	ldr	r4, [pc, #52]	; (80017f0 <__libc_init_array+0x3c>)
 80017ba:	1b64      	subs	r4, r4, r5
 80017bc:	10a4      	asrs	r4, r4, #2
 80017be:	2600      	movs	r6, #0
 80017c0:	42a6      	cmp	r6, r4
 80017c2:	d109      	bne.n	80017d8 <__libc_init_array+0x24>
 80017c4:	4d0b      	ldr	r5, [pc, #44]	; (80017f4 <__libc_init_array+0x40>)
 80017c6:	4c0c      	ldr	r4, [pc, #48]	; (80017f8 <__libc_init_array+0x44>)
 80017c8:	f000 f818 	bl	80017fc <_init>
 80017cc:	1b64      	subs	r4, r4, r5
 80017ce:	10a4      	asrs	r4, r4, #2
 80017d0:	2600      	movs	r6, #0
 80017d2:	42a6      	cmp	r6, r4
 80017d4:	d105      	bne.n	80017e2 <__libc_init_array+0x2e>
 80017d6:	bd70      	pop	{r4, r5, r6, pc}
 80017d8:	f855 3b04 	ldr.w	r3, [r5], #4
 80017dc:	4798      	blx	r3
 80017de:	3601      	adds	r6, #1
 80017e0:	e7ee      	b.n	80017c0 <__libc_init_array+0xc>
 80017e2:	f855 3b04 	ldr.w	r3, [r5], #4
 80017e6:	4798      	blx	r3
 80017e8:	3601      	adds	r6, #1
 80017ea:	e7f2      	b.n	80017d2 <__libc_init_array+0x1e>
 80017ec:	0800444c 	.word	0x0800444c
 80017f0:	0800444c 	.word	0x0800444c
 80017f4:	0800444c 	.word	0x0800444c
 80017f8:	08004450 	.word	0x08004450

080017fc <_init>:
 80017fc:	b5f8      	push	{r3, r4, r5, r6, r7, lr}
 80017fe:	bf00      	nop
 8001800:	bcf8      	pop	{r3, r4, r5, r6, r7}
 8001802:	bc08      	pop	{r3}
 8001804:	469e      	mov	lr, r3
 8001806:	4770      	bx	lr

08001808 <_fini>:
 8001808:	b5f8      	push	{r3, r4, r5, r6, r7, lr}
 800180a:	bf00      	nop
 800180c:	bcf8      	pop	{r3, r4, r5, r6, r7}
 800180e:	bc08      	pop	{r3}
 8001810:	469e      	mov	lr, r3
 8001812:	4770      	bx	lr
